ARM GAS  /tmp/ccVZ1tTs.s 			page 1


   1              		.cpu cortex-m4
   2              		.eabi_attribute 27, 1
   3              		.eabi_attribute 28, 1
   4              		.eabi_attribute 20, 1
   5              		.eabi_attribute 21, 1
   6              		.eabi_attribute 23, 3
   7              		.eabi_attribute 24, 1
   8              		.eabi_attribute 25, 1
   9              		.eabi_attribute 26, 1
  10              		.eabi_attribute 30, 4
  11              		.eabi_attribute 34, 1
  12              		.eabi_attribute 18, 4
  13              		.file	"stm32f4xx_hal_i2s_ex.c"
  14              		.text
  15              	.Ltext0:
  16              		.cfi_sections	.debug_frame
  17              		.section	.text.I2SEx_TxRxDMAError,"ax",%progbits
  18              		.align	1
  19              		.syntax unified
  20              		.thumb
  21              		.thumb_func
  22              		.fpu fpv4-sp-d16
  24              	I2SEx_TxRxDMAError:
  25              	.LFB134:
  26              		.file 1 "Drivers/STM32F4xx_HAL_Driver/Src/stm32f4xx_hal_i2s_ex.c"
   1:Drivers/STM32F4xx_HAL_Driver/Src/stm32f4xx_hal_i2s_ex.c **** /**
   2:Drivers/STM32F4xx_HAL_Driver/Src/stm32f4xx_hal_i2s_ex.c ****   ******************************************************************************
   3:Drivers/STM32F4xx_HAL_Driver/Src/stm32f4xx_hal_i2s_ex.c ****   * @file    stm32f4xx_hal_i2s_ex.c
   4:Drivers/STM32F4xx_HAL_Driver/Src/stm32f4xx_hal_i2s_ex.c ****   * @author  MCD Application Team
   5:Drivers/STM32F4xx_HAL_Driver/Src/stm32f4xx_hal_i2s_ex.c ****   * @brief   I2S HAL module driver.
   6:Drivers/STM32F4xx_HAL_Driver/Src/stm32f4xx_hal_i2s_ex.c ****   *          This file provides firmware functions to manage the following
   7:Drivers/STM32F4xx_HAL_Driver/Src/stm32f4xx_hal_i2s_ex.c ****   *          functionalities of I2S extension peripheral:
   8:Drivers/STM32F4xx_HAL_Driver/Src/stm32f4xx_hal_i2s_ex.c ****   *           + Extension features Functions
   9:Drivers/STM32F4xx_HAL_Driver/Src/stm32f4xx_hal_i2s_ex.c ****   *
  10:Drivers/STM32F4xx_HAL_Driver/Src/stm32f4xx_hal_i2s_ex.c ****   @verbatim
  11:Drivers/STM32F4xx_HAL_Driver/Src/stm32f4xx_hal_i2s_ex.c ****   ==============================================================================
  12:Drivers/STM32F4xx_HAL_Driver/Src/stm32f4xx_hal_i2s_ex.c ****                     ##### I2S Extension features #####
  13:Drivers/STM32F4xx_HAL_Driver/Src/stm32f4xx_hal_i2s_ex.c ****   ==============================================================================
  14:Drivers/STM32F4xx_HAL_Driver/Src/stm32f4xx_hal_i2s_ex.c ****   [..]
  15:Drivers/STM32F4xx_HAL_Driver/Src/stm32f4xx_hal_i2s_ex.c ****      (#) In I2S full duplex mode, each SPI peripheral is able to manage sending and receiving
  16:Drivers/STM32F4xx_HAL_Driver/Src/stm32f4xx_hal_i2s_ex.c ****          data simultaneously using two data lines. Each SPI peripheral has an extended block
  17:Drivers/STM32F4xx_HAL_Driver/Src/stm32f4xx_hal_i2s_ex.c ****          called I2Sxext (i.e I2S2ext for SPI2 and I2S3ext for SPI3).
  18:Drivers/STM32F4xx_HAL_Driver/Src/stm32f4xx_hal_i2s_ex.c ****      (#) The extension block is not a full SPI IP, it is used only as I2S slave to
  19:Drivers/STM32F4xx_HAL_Driver/Src/stm32f4xx_hal_i2s_ex.c ****          implement full duplex mode. The extension block uses the same clock sources
  20:Drivers/STM32F4xx_HAL_Driver/Src/stm32f4xx_hal_i2s_ex.c ****          as its master.
  21:Drivers/STM32F4xx_HAL_Driver/Src/stm32f4xx_hal_i2s_ex.c **** 
  22:Drivers/STM32F4xx_HAL_Driver/Src/stm32f4xx_hal_i2s_ex.c ****      (#) Both I2Sx and I2Sx_ext can be configured as transmitters or receivers.
  23:Drivers/STM32F4xx_HAL_Driver/Src/stm32f4xx_hal_i2s_ex.c **** 
  24:Drivers/STM32F4xx_HAL_Driver/Src/stm32f4xx_hal_i2s_ex.c ****      [..]
  25:Drivers/STM32F4xx_HAL_Driver/Src/stm32f4xx_hal_i2s_ex.c ****        (@) Only I2Sx can deliver SCK and WS to I2Sx_ext in full duplex mode, where
  26:Drivers/STM32F4xx_HAL_Driver/Src/stm32f4xx_hal_i2s_ex.c ****          I2Sx can be I2S2 or I2S3.
  27:Drivers/STM32F4xx_HAL_Driver/Src/stm32f4xx_hal_i2s_ex.c **** 
  28:Drivers/STM32F4xx_HAL_Driver/Src/stm32f4xx_hal_i2s_ex.c ****                   ##### How to use this driver #####
  29:Drivers/STM32F4xx_HAL_Driver/Src/stm32f4xx_hal_i2s_ex.c ****  ===============================================================================
  30:Drivers/STM32F4xx_HAL_Driver/Src/stm32f4xx_hal_i2s_ex.c ****  [..]
  31:Drivers/STM32F4xx_HAL_Driver/Src/stm32f4xx_hal_i2s_ex.c ****    Three operation modes are available within this driver :
  32:Drivers/STM32F4xx_HAL_Driver/Src/stm32f4xx_hal_i2s_ex.c **** 
ARM GAS  /tmp/ccVZ1tTs.s 			page 2


  33:Drivers/STM32F4xx_HAL_Driver/Src/stm32f4xx_hal_i2s_ex.c ****    *** Polling mode IO operation ***
  34:Drivers/STM32F4xx_HAL_Driver/Src/stm32f4xx_hal_i2s_ex.c ****    =================================
  35:Drivers/STM32F4xx_HAL_Driver/Src/stm32f4xx_hal_i2s_ex.c ****    [..]
  36:Drivers/STM32F4xx_HAL_Driver/Src/stm32f4xx_hal_i2s_ex.c ****      (+) Send and receive in the same time an amount of data in blocking mode using HAL_I2SEx_Trans
  37:Drivers/STM32F4xx_HAL_Driver/Src/stm32f4xx_hal_i2s_ex.c **** 
  38:Drivers/STM32F4xx_HAL_Driver/Src/stm32f4xx_hal_i2s_ex.c ****    *** Interrupt mode IO operation ***
  39:Drivers/STM32F4xx_HAL_Driver/Src/stm32f4xx_hal_i2s_ex.c ****    ===================================
  40:Drivers/STM32F4xx_HAL_Driver/Src/stm32f4xx_hal_i2s_ex.c ****    [..]
  41:Drivers/STM32F4xx_HAL_Driver/Src/stm32f4xx_hal_i2s_ex.c ****      (+) Send and receive in the same time an amount of data in non blocking mode using HAL_I2SEx_T
  42:Drivers/STM32F4xx_HAL_Driver/Src/stm32f4xx_hal_i2s_ex.c ****      (+) At transmission/reception end of transfer HAL_I2SEx_TxRxCpltCallback is executed and user 
  43:Drivers/STM32F4xx_HAL_Driver/Src/stm32f4xx_hal_i2s_ex.c ****          add his own code by customization of function pointer HAL_I2SEx_TxRxCpltCallback
  44:Drivers/STM32F4xx_HAL_Driver/Src/stm32f4xx_hal_i2s_ex.c ****      (+) In case of transfer Error, HAL_I2S_ErrorCallback() function is executed and user can
  45:Drivers/STM32F4xx_HAL_Driver/Src/stm32f4xx_hal_i2s_ex.c ****          add his own code by customization of function pointer HAL_I2S_ErrorCallback
  46:Drivers/STM32F4xx_HAL_Driver/Src/stm32f4xx_hal_i2s_ex.c **** 
  47:Drivers/STM32F4xx_HAL_Driver/Src/stm32f4xx_hal_i2s_ex.c ****    *** DMA mode IO operation ***
  48:Drivers/STM32F4xx_HAL_Driver/Src/stm32f4xx_hal_i2s_ex.c ****    ==============================
  49:Drivers/STM32F4xx_HAL_Driver/Src/stm32f4xx_hal_i2s_ex.c ****    [..]
  50:Drivers/STM32F4xx_HAL_Driver/Src/stm32f4xx_hal_i2s_ex.c ****      (+) Send and receive an amount of data in non blocking mode (DMA) using HAL_I2SEx_TransmitRece
  51:Drivers/STM32F4xx_HAL_Driver/Src/stm32f4xx_hal_i2s_ex.c ****      (+) At transmission/reception end of transfer HAL_I2SEx_TxRxCpltCallback is executed and user 
  52:Drivers/STM32F4xx_HAL_Driver/Src/stm32f4xx_hal_i2s_ex.c ****          add his own code by customization of function pointer HAL_I2S_TxRxCpltCallback
  53:Drivers/STM32F4xx_HAL_Driver/Src/stm32f4xx_hal_i2s_ex.c ****      (+) In case of transfer Error, HAL_I2S_ErrorCallback() function is executed and user can
  54:Drivers/STM32F4xx_HAL_Driver/Src/stm32f4xx_hal_i2s_ex.c ****          add his own code by customization of function pointer HAL_I2S_ErrorCallback
  55:Drivers/STM32F4xx_HAL_Driver/Src/stm32f4xx_hal_i2s_ex.c ****   @endverbatim
  56:Drivers/STM32F4xx_HAL_Driver/Src/stm32f4xx_hal_i2s_ex.c **** 
  57:Drivers/STM32F4xx_HAL_Driver/Src/stm32f4xx_hal_i2s_ex.c ****  Additional Figure: The Extended block uses the same clock sources as its master.
  58:Drivers/STM32F4xx_HAL_Driver/Src/stm32f4xx_hal_i2s_ex.c **** 
  59:Drivers/STM32F4xx_HAL_Driver/Src/stm32f4xx_hal_i2s_ex.c ****                 +-----------------------+
  60:Drivers/STM32F4xx_HAL_Driver/Src/stm32f4xx_hal_i2s_ex.c ****     I2Sx_SCK    |                       |
  61:Drivers/STM32F4xx_HAL_Driver/Src/stm32f4xx_hal_i2s_ex.c ****  ----------+-->|          I2Sx         |------------------->I2Sx_SD(in/out)
  62:Drivers/STM32F4xx_HAL_Driver/Src/stm32f4xx_hal_i2s_ex.c ****          +--|-->|                       |
  63:Drivers/STM32F4xx_HAL_Driver/Src/stm32f4xx_hal_i2s_ex.c ****         |   |   +-----------------------+
  64:Drivers/STM32F4xx_HAL_Driver/Src/stm32f4xx_hal_i2s_ex.c ****         |   |
  65:Drivers/STM32F4xx_HAL_Driver/Src/stm32f4xx_hal_i2s_ex.c ****  I2S_WS |   |
  66:Drivers/STM32F4xx_HAL_Driver/Src/stm32f4xx_hal_i2s_ex.c ****  ------>|   |
  67:Drivers/STM32F4xx_HAL_Driver/Src/stm32f4xx_hal_i2s_ex.c ****         |   |   +-----------------------+
  68:Drivers/STM32F4xx_HAL_Driver/Src/stm32f4xx_hal_i2s_ex.c ****         |   +-->|                       |
  69:Drivers/STM32F4xx_HAL_Driver/Src/stm32f4xx_hal_i2s_ex.c ****         |       |       I2Sx_ext        |------------------->I2Sx_extSD(in/out)
  70:Drivers/STM32F4xx_HAL_Driver/Src/stm32f4xx_hal_i2s_ex.c ****          +----->|                       |
  71:Drivers/STM32F4xx_HAL_Driver/Src/stm32f4xx_hal_i2s_ex.c ****                 +-----------------------+
  72:Drivers/STM32F4xx_HAL_Driver/Src/stm32f4xx_hal_i2s_ex.c ****   ******************************************************************************
  73:Drivers/STM32F4xx_HAL_Driver/Src/stm32f4xx_hal_i2s_ex.c ****   * @attention
  74:Drivers/STM32F4xx_HAL_Driver/Src/stm32f4xx_hal_i2s_ex.c ****   *
  75:Drivers/STM32F4xx_HAL_Driver/Src/stm32f4xx_hal_i2s_ex.c ****   * <h2><center>&copy; COPYRIGHT(c) 2017 STMicroelectronics</center></h2>
  76:Drivers/STM32F4xx_HAL_Driver/Src/stm32f4xx_hal_i2s_ex.c ****   *
  77:Drivers/STM32F4xx_HAL_Driver/Src/stm32f4xx_hal_i2s_ex.c ****   * Redistribution and use in source and binary forms, with or without modification,
  78:Drivers/STM32F4xx_HAL_Driver/Src/stm32f4xx_hal_i2s_ex.c ****   * are permitted provided that the following conditions are met:
  79:Drivers/STM32F4xx_HAL_Driver/Src/stm32f4xx_hal_i2s_ex.c ****   *   1. Redistributions of source code must retain the above copyright notice,
  80:Drivers/STM32F4xx_HAL_Driver/Src/stm32f4xx_hal_i2s_ex.c ****   *      this list of conditions and the following disclaimer.
  81:Drivers/STM32F4xx_HAL_Driver/Src/stm32f4xx_hal_i2s_ex.c ****   *   2. Redistributions in binary form must reproduce the above copyright notice,
  82:Drivers/STM32F4xx_HAL_Driver/Src/stm32f4xx_hal_i2s_ex.c ****   *      this list of conditions and the following disclaimer in the documentation
  83:Drivers/STM32F4xx_HAL_Driver/Src/stm32f4xx_hal_i2s_ex.c ****   *      and/or other materials provided with the distribution.
  84:Drivers/STM32F4xx_HAL_Driver/Src/stm32f4xx_hal_i2s_ex.c ****   *   3. Neither the name of STMicroelectronics nor the names of its contributors
  85:Drivers/STM32F4xx_HAL_Driver/Src/stm32f4xx_hal_i2s_ex.c ****   *      may be used to endorse or promote products derived from this software
  86:Drivers/STM32F4xx_HAL_Driver/Src/stm32f4xx_hal_i2s_ex.c ****   *      without specific prior written permission.
  87:Drivers/STM32F4xx_HAL_Driver/Src/stm32f4xx_hal_i2s_ex.c ****   *
  88:Drivers/STM32F4xx_HAL_Driver/Src/stm32f4xx_hal_i2s_ex.c ****   * THIS SOFTWARE IS PROVIDED BY THE COPYRIGHT HOLDERS AND CONTRIBUTORS "AS IS"
  89:Drivers/STM32F4xx_HAL_Driver/Src/stm32f4xx_hal_i2s_ex.c ****   * AND ANY EXPRESS OR IMPLIED WARRANTIES, INCLUDING, BUT NOT LIMITED TO, THE
ARM GAS  /tmp/ccVZ1tTs.s 			page 3


  90:Drivers/STM32F4xx_HAL_Driver/Src/stm32f4xx_hal_i2s_ex.c ****   * IMPLIED WARRANTIES OF MERCHANTABILITY AND FITNESS FOR A PARTICULAR PURPOSE ARE
  91:Drivers/STM32F4xx_HAL_Driver/Src/stm32f4xx_hal_i2s_ex.c ****   * DISCLAIMED. IN NO EVENT SHALL THE COPYRIGHT HOLDER OR CONTRIBUTORS BE LIABLE
  92:Drivers/STM32F4xx_HAL_Driver/Src/stm32f4xx_hal_i2s_ex.c ****   * FOR ANY DIRECT, INDIRECT, INCIDENTAL, SPECIAL, EXEMPLARY, OR CONSEQUENTIAL
  93:Drivers/STM32F4xx_HAL_Driver/Src/stm32f4xx_hal_i2s_ex.c ****   * DAMAGES (INCLUDING, BUT NOT LIMITED TO, PROCUREMENT OF SUBSTITUTE GOODS OR
  94:Drivers/STM32F4xx_HAL_Driver/Src/stm32f4xx_hal_i2s_ex.c ****   * SERVICES; LOSS OF USE, DATA, OR PROFITS; OR BUSINESS INTERRUPTION) HOWEVER
  95:Drivers/STM32F4xx_HAL_Driver/Src/stm32f4xx_hal_i2s_ex.c ****   * CAUSED AND ON ANY THEORY OF LIABILITY, WHETHER IN CONTRACT, STRICT LIABILITY,
  96:Drivers/STM32F4xx_HAL_Driver/Src/stm32f4xx_hal_i2s_ex.c ****   * OR TORT (INCLUDING NEGLIGENCE OR OTHERWISE) ARISING IN ANY WAY OUT OF THE USE
  97:Drivers/STM32F4xx_HAL_Driver/Src/stm32f4xx_hal_i2s_ex.c ****   * OF THIS SOFTWARE, EVEN IF ADVISED OF THE POSSIBILITY OF SUCH DAMAGE.
  98:Drivers/STM32F4xx_HAL_Driver/Src/stm32f4xx_hal_i2s_ex.c ****   *
  99:Drivers/STM32F4xx_HAL_Driver/Src/stm32f4xx_hal_i2s_ex.c ****   ******************************************************************************
 100:Drivers/STM32F4xx_HAL_Driver/Src/stm32f4xx_hal_i2s_ex.c ****   */
 101:Drivers/STM32F4xx_HAL_Driver/Src/stm32f4xx_hal_i2s_ex.c **** 
 102:Drivers/STM32F4xx_HAL_Driver/Src/stm32f4xx_hal_i2s_ex.c **** /* Includes ------------------------------------------------------------------*/
 103:Drivers/STM32F4xx_HAL_Driver/Src/stm32f4xx_hal_i2s_ex.c **** #include "stm32f4xx_hal.h"
 104:Drivers/STM32F4xx_HAL_Driver/Src/stm32f4xx_hal_i2s_ex.c **** 
 105:Drivers/STM32F4xx_HAL_Driver/Src/stm32f4xx_hal_i2s_ex.c **** /** @addtogroup STM32F4xx_HAL_Driver
 106:Drivers/STM32F4xx_HAL_Driver/Src/stm32f4xx_hal_i2s_ex.c ****   * @{
 107:Drivers/STM32F4xx_HAL_Driver/Src/stm32f4xx_hal_i2s_ex.c ****   */
 108:Drivers/STM32F4xx_HAL_Driver/Src/stm32f4xx_hal_i2s_ex.c **** 
 109:Drivers/STM32F4xx_HAL_Driver/Src/stm32f4xx_hal_i2s_ex.c **** #ifdef HAL_I2S_MODULE_ENABLED
 110:Drivers/STM32F4xx_HAL_Driver/Src/stm32f4xx_hal_i2s_ex.c **** 
 111:Drivers/STM32F4xx_HAL_Driver/Src/stm32f4xx_hal_i2s_ex.c **** /** @defgroup I2SEx I2SEx
 112:Drivers/STM32F4xx_HAL_Driver/Src/stm32f4xx_hal_i2s_ex.c ****   * @brief I2S Extended HAL module driver
 113:Drivers/STM32F4xx_HAL_Driver/Src/stm32f4xx_hal_i2s_ex.c ****   * @{
 114:Drivers/STM32F4xx_HAL_Driver/Src/stm32f4xx_hal_i2s_ex.c ****   */
 115:Drivers/STM32F4xx_HAL_Driver/Src/stm32f4xx_hal_i2s_ex.c **** 
 116:Drivers/STM32F4xx_HAL_Driver/Src/stm32f4xx_hal_i2s_ex.c **** #if defined (SPI_I2S_FULLDUPLEX_SUPPORT)
 117:Drivers/STM32F4xx_HAL_Driver/Src/stm32f4xx_hal_i2s_ex.c **** 
 118:Drivers/STM32F4xx_HAL_Driver/Src/stm32f4xx_hal_i2s_ex.c **** /* Private typedef -----------------------------------------------------------*/
 119:Drivers/STM32F4xx_HAL_Driver/Src/stm32f4xx_hal_i2s_ex.c **** /** @defgroup I2SEx_Private_Typedef I2S Extended Private Typedef
 120:Drivers/STM32F4xx_HAL_Driver/Src/stm32f4xx_hal_i2s_ex.c ****   * @{
 121:Drivers/STM32F4xx_HAL_Driver/Src/stm32f4xx_hal_i2s_ex.c ****   */
 122:Drivers/STM32F4xx_HAL_Driver/Src/stm32f4xx_hal_i2s_ex.c **** typedef enum
 123:Drivers/STM32F4xx_HAL_Driver/Src/stm32f4xx_hal_i2s_ex.c **** {
 124:Drivers/STM32F4xx_HAL_Driver/Src/stm32f4xx_hal_i2s_ex.c ****   I2S_USE_I2S      = 0x00U,   /*!< I2Sx should be used      */
 125:Drivers/STM32F4xx_HAL_Driver/Src/stm32f4xx_hal_i2s_ex.c ****   I2S_USE_I2SEXT   = 0x01U,   /*!< I2Sx_ext should be used  */
 126:Drivers/STM32F4xx_HAL_Driver/Src/stm32f4xx_hal_i2s_ex.c **** }I2S_UseTypeDef;
 127:Drivers/STM32F4xx_HAL_Driver/Src/stm32f4xx_hal_i2s_ex.c **** /**
 128:Drivers/STM32F4xx_HAL_Driver/Src/stm32f4xx_hal_i2s_ex.c ****   * @}
 129:Drivers/STM32F4xx_HAL_Driver/Src/stm32f4xx_hal_i2s_ex.c ****   */
 130:Drivers/STM32F4xx_HAL_Driver/Src/stm32f4xx_hal_i2s_ex.c **** /* Private define ------------------------------------------------------------*/
 131:Drivers/STM32F4xx_HAL_Driver/Src/stm32f4xx_hal_i2s_ex.c **** /* Private macro -------------------------------------------------------------*/
 132:Drivers/STM32F4xx_HAL_Driver/Src/stm32f4xx_hal_i2s_ex.c **** /* Private variables ---------------------------------------------------------*/
 133:Drivers/STM32F4xx_HAL_Driver/Src/stm32f4xx_hal_i2s_ex.c **** /* Private function prototypes -----------------------------------------------*/
 134:Drivers/STM32F4xx_HAL_Driver/Src/stm32f4xx_hal_i2s_ex.c **** /** @defgroup I2SEx_Private_Functions I2S Extended Private Functions
 135:Drivers/STM32F4xx_HAL_Driver/Src/stm32f4xx_hal_i2s_ex.c ****   * @{
 136:Drivers/STM32F4xx_HAL_Driver/Src/stm32f4xx_hal_i2s_ex.c ****   */
 137:Drivers/STM32F4xx_HAL_Driver/Src/stm32f4xx_hal_i2s_ex.c **** static void I2SEx_TxRxDMAHalfCplt(DMA_HandleTypeDef *hdma);
 138:Drivers/STM32F4xx_HAL_Driver/Src/stm32f4xx_hal_i2s_ex.c **** static void I2SEx_TxRxDMACplt(DMA_HandleTypeDef *hdma);
 139:Drivers/STM32F4xx_HAL_Driver/Src/stm32f4xx_hal_i2s_ex.c **** static void I2SEx_TxRxDMAError(DMA_HandleTypeDef *hdma);
 140:Drivers/STM32F4xx_HAL_Driver/Src/stm32f4xx_hal_i2s_ex.c **** static void I2SEx_FullDuplexTx_IT(I2S_HandleTypeDef *hi2s, I2S_UseTypeDef i2sUsed);
 141:Drivers/STM32F4xx_HAL_Driver/Src/stm32f4xx_hal_i2s_ex.c **** static void I2SEx_FullDuplexRx_IT(I2S_HandleTypeDef *hi2s, I2S_UseTypeDef i2sUsed);
 142:Drivers/STM32F4xx_HAL_Driver/Src/stm32f4xx_hal_i2s_ex.c **** static HAL_StatusTypeDef I2SEx_FullDuplexWaitFlagStateUntilTimeout(I2S_HandleTypeDef *hi2s, uint32_
 143:Drivers/STM32F4xx_HAL_Driver/Src/stm32f4xx_hal_i2s_ex.c ****                                                                    uint32_t State, uint32_t Timeout
 144:Drivers/STM32F4xx_HAL_Driver/Src/stm32f4xx_hal_i2s_ex.c **** /**
 145:Drivers/STM32F4xx_HAL_Driver/Src/stm32f4xx_hal_i2s_ex.c ****   * @}
 146:Drivers/STM32F4xx_HAL_Driver/Src/stm32f4xx_hal_i2s_ex.c ****   */
ARM GAS  /tmp/ccVZ1tTs.s 			page 4


 147:Drivers/STM32F4xx_HAL_Driver/Src/stm32f4xx_hal_i2s_ex.c **** 
 148:Drivers/STM32F4xx_HAL_Driver/Src/stm32f4xx_hal_i2s_ex.c **** /**
 149:Drivers/STM32F4xx_HAL_Driver/Src/stm32f4xx_hal_i2s_ex.c ****   * @}
 150:Drivers/STM32F4xx_HAL_Driver/Src/stm32f4xx_hal_i2s_ex.c ****   */
 151:Drivers/STM32F4xx_HAL_Driver/Src/stm32f4xx_hal_i2s_ex.c **** 
 152:Drivers/STM32F4xx_HAL_Driver/Src/stm32f4xx_hal_i2s_ex.c **** /* Private functions ---------------------------------------------------------*/
 153:Drivers/STM32F4xx_HAL_Driver/Src/stm32f4xx_hal_i2s_ex.c **** /* Exported functions --------------------------------------------------------*/
 154:Drivers/STM32F4xx_HAL_Driver/Src/stm32f4xx_hal_i2s_ex.c **** 
 155:Drivers/STM32F4xx_HAL_Driver/Src/stm32f4xx_hal_i2s_ex.c **** /** @addtogroup I2SEx I2SEx
 156:Drivers/STM32F4xx_HAL_Driver/Src/stm32f4xx_hal_i2s_ex.c ****   * @{
 157:Drivers/STM32F4xx_HAL_Driver/Src/stm32f4xx_hal_i2s_ex.c ****   */
 158:Drivers/STM32F4xx_HAL_Driver/Src/stm32f4xx_hal_i2s_ex.c **** 
 159:Drivers/STM32F4xx_HAL_Driver/Src/stm32f4xx_hal_i2s_ex.c **** /** @addtogroup I2SEx_Exported_Functions I2S Extended Exported Functions
 160:Drivers/STM32F4xx_HAL_Driver/Src/stm32f4xx_hal_i2s_ex.c ****   * @{
 161:Drivers/STM32F4xx_HAL_Driver/Src/stm32f4xx_hal_i2s_ex.c ****   */
 162:Drivers/STM32F4xx_HAL_Driver/Src/stm32f4xx_hal_i2s_ex.c **** 
 163:Drivers/STM32F4xx_HAL_Driver/Src/stm32f4xx_hal_i2s_ex.c **** /** @defgroup I2SEx_Exported_Functions_Group1 I2S Extended IO operation functions
 164:Drivers/STM32F4xx_HAL_Driver/Src/stm32f4xx_hal_i2s_ex.c ****   *  @brief   I2SEx IO operation functions
 165:Drivers/STM32F4xx_HAL_Driver/Src/stm32f4xx_hal_i2s_ex.c ****   *
 166:Drivers/STM32F4xx_HAL_Driver/Src/stm32f4xx_hal_i2s_ex.c **** @verbatim
 167:Drivers/STM32F4xx_HAL_Driver/Src/stm32f4xx_hal_i2s_ex.c ****  ===============================================================================
 168:Drivers/STM32F4xx_HAL_Driver/Src/stm32f4xx_hal_i2s_ex.c ****                        ##### IO operation functions#####
 169:Drivers/STM32F4xx_HAL_Driver/Src/stm32f4xx_hal_i2s_ex.c ****  ===============================================================================
 170:Drivers/STM32F4xx_HAL_Driver/Src/stm32f4xx_hal_i2s_ex.c ****     [..]
 171:Drivers/STM32F4xx_HAL_Driver/Src/stm32f4xx_hal_i2s_ex.c ****     This subsection provides a set of functions allowing to manage the I2S data
 172:Drivers/STM32F4xx_HAL_Driver/Src/stm32f4xx_hal_i2s_ex.c ****     transfers.
 173:Drivers/STM32F4xx_HAL_Driver/Src/stm32f4xx_hal_i2s_ex.c **** 
 174:Drivers/STM32F4xx_HAL_Driver/Src/stm32f4xx_hal_i2s_ex.c ****     (#) There are two modes of transfer:
 175:Drivers/STM32F4xx_HAL_Driver/Src/stm32f4xx_hal_i2s_ex.c ****        (++) Blocking mode : The communication is performed in the polling mode.
 176:Drivers/STM32F4xx_HAL_Driver/Src/stm32f4xx_hal_i2s_ex.c ****             The status of all data processing is returned by the same function
 177:Drivers/STM32F4xx_HAL_Driver/Src/stm32f4xx_hal_i2s_ex.c ****             after finishing transfer.
 178:Drivers/STM32F4xx_HAL_Driver/Src/stm32f4xx_hal_i2s_ex.c ****        (++) No-Blocking mode : The communication is performed using Interrupts
 179:Drivers/STM32F4xx_HAL_Driver/Src/stm32f4xx_hal_i2s_ex.c ****             or DMA. These functions return the status of the transfer startup.
 180:Drivers/STM32F4xx_HAL_Driver/Src/stm32f4xx_hal_i2s_ex.c ****             The end of the data processing will be indicated through the
 181:Drivers/STM32F4xx_HAL_Driver/Src/stm32f4xx_hal_i2s_ex.c ****             dedicated I2S IRQ when using Interrupt mode or the DMA IRQ when
 182:Drivers/STM32F4xx_HAL_Driver/Src/stm32f4xx_hal_i2s_ex.c ****             using DMA mode.
 183:Drivers/STM32F4xx_HAL_Driver/Src/stm32f4xx_hal_i2s_ex.c **** 
 184:Drivers/STM32F4xx_HAL_Driver/Src/stm32f4xx_hal_i2s_ex.c ****     (#) Blocking mode functions are :
 185:Drivers/STM32F4xx_HAL_Driver/Src/stm32f4xx_hal_i2s_ex.c ****         (++) HAL_I2SEx_TransmitReceive()
 186:Drivers/STM32F4xx_HAL_Driver/Src/stm32f4xx_hal_i2s_ex.c **** 
 187:Drivers/STM32F4xx_HAL_Driver/Src/stm32f4xx_hal_i2s_ex.c ****     (#) No-Blocking mode functions with Interrupt are :
 188:Drivers/STM32F4xx_HAL_Driver/Src/stm32f4xx_hal_i2s_ex.c ****         (++) HAL_I2SEx_TransmitReceive_IT()
 189:Drivers/STM32F4xx_HAL_Driver/Src/stm32f4xx_hal_i2s_ex.c ****         (++) HAL_I2SEx_FullDuplex_IRQHandler()
 190:Drivers/STM32F4xx_HAL_Driver/Src/stm32f4xx_hal_i2s_ex.c **** 
 191:Drivers/STM32F4xx_HAL_Driver/Src/stm32f4xx_hal_i2s_ex.c ****     (#) No-Blocking mode functions with DMA are :
 192:Drivers/STM32F4xx_HAL_Driver/Src/stm32f4xx_hal_i2s_ex.c ****         (++) HAL_I2SEx_TransmitReceive_DMA()
 193:Drivers/STM32F4xx_HAL_Driver/Src/stm32f4xx_hal_i2s_ex.c **** 
 194:Drivers/STM32F4xx_HAL_Driver/Src/stm32f4xx_hal_i2s_ex.c ****     (#) A set of Transfer Complete Callback are provided in non Blocking mode:
 195:Drivers/STM32F4xx_HAL_Driver/Src/stm32f4xx_hal_i2s_ex.c ****         (++) HAL_I2SEx_TxRxCpltCallback()
 196:Drivers/STM32F4xx_HAL_Driver/Src/stm32f4xx_hal_i2s_ex.c **** @endverbatim
 197:Drivers/STM32F4xx_HAL_Driver/Src/stm32f4xx_hal_i2s_ex.c ****   * @{
 198:Drivers/STM32F4xx_HAL_Driver/Src/stm32f4xx_hal_i2s_ex.c ****   */
 199:Drivers/STM32F4xx_HAL_Driver/Src/stm32f4xx_hal_i2s_ex.c **** /**
 200:Drivers/STM32F4xx_HAL_Driver/Src/stm32f4xx_hal_i2s_ex.c ****   * @brief Full-Duplex Transmit/Receive data in blocking mode.
 201:Drivers/STM32F4xx_HAL_Driver/Src/stm32f4xx_hal_i2s_ex.c ****   * @param  hi2s pointer to a I2S_HandleTypeDef structure that contains
 202:Drivers/STM32F4xx_HAL_Driver/Src/stm32f4xx_hal_i2s_ex.c ****   *         the configuration information for I2S module
 203:Drivers/STM32F4xx_HAL_Driver/Src/stm32f4xx_hal_i2s_ex.c ****   * @param pTxData a 16-bit pointer to the Transmit data buffer.
ARM GAS  /tmp/ccVZ1tTs.s 			page 5


 204:Drivers/STM32F4xx_HAL_Driver/Src/stm32f4xx_hal_i2s_ex.c ****   * @param pRxData a 16-bit pointer to the Receive data buffer.
 205:Drivers/STM32F4xx_HAL_Driver/Src/stm32f4xx_hal_i2s_ex.c ****   * @param Size number of data sample to be sent:
 206:Drivers/STM32F4xx_HAL_Driver/Src/stm32f4xx_hal_i2s_ex.c ****   * @note When a 16-bit data frame or a 16-bit data frame extended is selected during the I2S
 207:Drivers/STM32F4xx_HAL_Driver/Src/stm32f4xx_hal_i2s_ex.c ****   *       configuration phase, the Size parameter means the number of 16-bit data length
 208:Drivers/STM32F4xx_HAL_Driver/Src/stm32f4xx_hal_i2s_ex.c ****   *       in the transaction and when a 24-bit data frame or a 32-bit data frame is selected
 209:Drivers/STM32F4xx_HAL_Driver/Src/stm32f4xx_hal_i2s_ex.c ****   *       the Size parameter means the number of 16-bit data length.
 210:Drivers/STM32F4xx_HAL_Driver/Src/stm32f4xx_hal_i2s_ex.c ****   * @param Timeout Timeout duration
 211:Drivers/STM32F4xx_HAL_Driver/Src/stm32f4xx_hal_i2s_ex.c ****   * @note The I2S is kept enabled at the end of transaction to avoid the clock de-synchronization
 212:Drivers/STM32F4xx_HAL_Driver/Src/stm32f4xx_hal_i2s_ex.c ****   *       between Master and Slave(example: audio streaming).
 213:Drivers/STM32F4xx_HAL_Driver/Src/stm32f4xx_hal_i2s_ex.c ****   * @retval HAL status
 214:Drivers/STM32F4xx_HAL_Driver/Src/stm32f4xx_hal_i2s_ex.c ****   */
 215:Drivers/STM32F4xx_HAL_Driver/Src/stm32f4xx_hal_i2s_ex.c **** HAL_StatusTypeDef HAL_I2SEx_TransmitReceive(I2S_HandleTypeDef *hi2s, uint16_t *pTxData, uint16_t *p
 216:Drivers/STM32F4xx_HAL_Driver/Src/stm32f4xx_hal_i2s_ex.c ****                                             uint16_t Size, uint32_t Timeout)
 217:Drivers/STM32F4xx_HAL_Driver/Src/stm32f4xx_hal_i2s_ex.c **** {
 218:Drivers/STM32F4xx_HAL_Driver/Src/stm32f4xx_hal_i2s_ex.c ****   uint32_t tmp1 = 0U;
 219:Drivers/STM32F4xx_HAL_Driver/Src/stm32f4xx_hal_i2s_ex.c **** 
 220:Drivers/STM32F4xx_HAL_Driver/Src/stm32f4xx_hal_i2s_ex.c ****   if((pTxData == NULL ) || (pRxData == NULL ) || (Size == 0U))
 221:Drivers/STM32F4xx_HAL_Driver/Src/stm32f4xx_hal_i2s_ex.c ****   {
 222:Drivers/STM32F4xx_HAL_Driver/Src/stm32f4xx_hal_i2s_ex.c ****     return  HAL_ERROR;
 223:Drivers/STM32F4xx_HAL_Driver/Src/stm32f4xx_hal_i2s_ex.c ****   }
 224:Drivers/STM32F4xx_HAL_Driver/Src/stm32f4xx_hal_i2s_ex.c **** 
 225:Drivers/STM32F4xx_HAL_Driver/Src/stm32f4xx_hal_i2s_ex.c ****   /* Check the I2S State */
 226:Drivers/STM32F4xx_HAL_Driver/Src/stm32f4xx_hal_i2s_ex.c ****   if(hi2s->State == HAL_I2S_STATE_READY)
 227:Drivers/STM32F4xx_HAL_Driver/Src/stm32f4xx_hal_i2s_ex.c ****   {
 228:Drivers/STM32F4xx_HAL_Driver/Src/stm32f4xx_hal_i2s_ex.c ****     tmp1 = hi2s->Instance->I2SCFGR & (SPI_I2SCFGR_DATLEN | SPI_I2SCFGR_CHLEN);
 229:Drivers/STM32F4xx_HAL_Driver/Src/stm32f4xx_hal_i2s_ex.c ****     /* Check the Data format: When a 16-bit data frame or a 16-bit data frame extended
 230:Drivers/STM32F4xx_HAL_Driver/Src/stm32f4xx_hal_i2s_ex.c ****        is selected during the I2S configuration phase, the Size parameter means the number
 231:Drivers/STM32F4xx_HAL_Driver/Src/stm32f4xx_hal_i2s_ex.c ****        of 16-bit data length in the transaction and when a 24-bit data frame or a 32-bit data
 232:Drivers/STM32F4xx_HAL_Driver/Src/stm32f4xx_hal_i2s_ex.c ****        frame is selected the Size parameter means the number of 16-bit data length. */
 233:Drivers/STM32F4xx_HAL_Driver/Src/stm32f4xx_hal_i2s_ex.c ****     if((tmp1 == I2S_DATAFORMAT_24B) || (tmp1 == I2S_DATAFORMAT_32B))
 234:Drivers/STM32F4xx_HAL_Driver/Src/stm32f4xx_hal_i2s_ex.c ****     {
 235:Drivers/STM32F4xx_HAL_Driver/Src/stm32f4xx_hal_i2s_ex.c ****       hi2s->TxXferSize  = (Size << 1U);
 236:Drivers/STM32F4xx_HAL_Driver/Src/stm32f4xx_hal_i2s_ex.c ****       hi2s->TxXferCount = (Size << 1U);
 237:Drivers/STM32F4xx_HAL_Driver/Src/stm32f4xx_hal_i2s_ex.c ****       hi2s->RxXferSize  = (Size << 1U);
 238:Drivers/STM32F4xx_HAL_Driver/Src/stm32f4xx_hal_i2s_ex.c ****       hi2s->RxXferCount = (Size << 1U);
 239:Drivers/STM32F4xx_HAL_Driver/Src/stm32f4xx_hal_i2s_ex.c ****     }
 240:Drivers/STM32F4xx_HAL_Driver/Src/stm32f4xx_hal_i2s_ex.c ****     else
 241:Drivers/STM32F4xx_HAL_Driver/Src/stm32f4xx_hal_i2s_ex.c ****     {
 242:Drivers/STM32F4xx_HAL_Driver/Src/stm32f4xx_hal_i2s_ex.c ****       hi2s->TxXferSize  = Size;
 243:Drivers/STM32F4xx_HAL_Driver/Src/stm32f4xx_hal_i2s_ex.c ****       hi2s->TxXferCount = Size;
 244:Drivers/STM32F4xx_HAL_Driver/Src/stm32f4xx_hal_i2s_ex.c ****       hi2s->RxXferSize  = Size;
 245:Drivers/STM32F4xx_HAL_Driver/Src/stm32f4xx_hal_i2s_ex.c ****       hi2s->RxXferCount = Size;
 246:Drivers/STM32F4xx_HAL_Driver/Src/stm32f4xx_hal_i2s_ex.c ****     }
 247:Drivers/STM32F4xx_HAL_Driver/Src/stm32f4xx_hal_i2s_ex.c **** 
 248:Drivers/STM32F4xx_HAL_Driver/Src/stm32f4xx_hal_i2s_ex.c ****     /* Process Locked */
 249:Drivers/STM32F4xx_HAL_Driver/Src/stm32f4xx_hal_i2s_ex.c ****     __HAL_LOCK(hi2s);
 250:Drivers/STM32F4xx_HAL_Driver/Src/stm32f4xx_hal_i2s_ex.c **** 
 251:Drivers/STM32F4xx_HAL_Driver/Src/stm32f4xx_hal_i2s_ex.c ****     hi2s->ErrorCode = HAL_I2S_ERROR_NONE;
 252:Drivers/STM32F4xx_HAL_Driver/Src/stm32f4xx_hal_i2s_ex.c **** 
 253:Drivers/STM32F4xx_HAL_Driver/Src/stm32f4xx_hal_i2s_ex.c ****     /* Set the I2S State busy TX/RX */
 254:Drivers/STM32F4xx_HAL_Driver/Src/stm32f4xx_hal_i2s_ex.c ****     hi2s->State = HAL_I2S_STATE_BUSY_TX_RX;
 255:Drivers/STM32F4xx_HAL_Driver/Src/stm32f4xx_hal_i2s_ex.c **** 
 256:Drivers/STM32F4xx_HAL_Driver/Src/stm32f4xx_hal_i2s_ex.c ****     tmp1 = hi2s->Instance->I2SCFGR & SPI_I2SCFGR_I2SCFG;
 257:Drivers/STM32F4xx_HAL_Driver/Src/stm32f4xx_hal_i2s_ex.c ****     /* Check if the I2S_MODE_MASTER_TX or I2S_MODE_SLAVE_TX Mode is selected */
 258:Drivers/STM32F4xx_HAL_Driver/Src/stm32f4xx_hal_i2s_ex.c ****     if((tmp1 == I2S_MODE_MASTER_TX) || (tmp1 == I2S_MODE_SLAVE_TX))
 259:Drivers/STM32F4xx_HAL_Driver/Src/stm32f4xx_hal_i2s_ex.c ****     {
 260:Drivers/STM32F4xx_HAL_Driver/Src/stm32f4xx_hal_i2s_ex.c ****       /* Prepare the First Data before enabling the I2S */
ARM GAS  /tmp/ccVZ1tTs.s 			page 6


 261:Drivers/STM32F4xx_HAL_Driver/Src/stm32f4xx_hal_i2s_ex.c ****       hi2s->Instance->DR = (*pTxData++);
 262:Drivers/STM32F4xx_HAL_Driver/Src/stm32f4xx_hal_i2s_ex.c ****       hi2s->TxXferCount--;
 263:Drivers/STM32F4xx_HAL_Driver/Src/stm32f4xx_hal_i2s_ex.c **** 
 264:Drivers/STM32F4xx_HAL_Driver/Src/stm32f4xx_hal_i2s_ex.c ****       /* Enable I2Sext(receiver) before enabling I2Sx peripheral */
 265:Drivers/STM32F4xx_HAL_Driver/Src/stm32f4xx_hal_i2s_ex.c ****       __HAL_I2SEXT_ENABLE(hi2s);
 266:Drivers/STM32F4xx_HAL_Driver/Src/stm32f4xx_hal_i2s_ex.c **** 
 267:Drivers/STM32F4xx_HAL_Driver/Src/stm32f4xx_hal_i2s_ex.c ****       /* Enable I2Sx peripheral */
 268:Drivers/STM32F4xx_HAL_Driver/Src/stm32f4xx_hal_i2s_ex.c ****       __HAL_I2S_ENABLE(hi2s);
 269:Drivers/STM32F4xx_HAL_Driver/Src/stm32f4xx_hal_i2s_ex.c **** 
 270:Drivers/STM32F4xx_HAL_Driver/Src/stm32f4xx_hal_i2s_ex.c ****       /* Check if Master Receiver mode is selected */
 271:Drivers/STM32F4xx_HAL_Driver/Src/stm32f4xx_hal_i2s_ex.c ****       if((hi2s->Instance->I2SCFGR & SPI_I2SCFGR_I2SCFG) == I2S_MODE_MASTER_TX)
 272:Drivers/STM32F4xx_HAL_Driver/Src/stm32f4xx_hal_i2s_ex.c ****       {
 273:Drivers/STM32F4xx_HAL_Driver/Src/stm32f4xx_hal_i2s_ex.c ****         /* Clear the Overrun Flag by a read operation on the SPI_DR register followed by a read
 274:Drivers/STM32F4xx_HAL_Driver/Src/stm32f4xx_hal_i2s_ex.c ****         access to the SPI_SR register. */
 275:Drivers/STM32F4xx_HAL_Driver/Src/stm32f4xx_hal_i2s_ex.c ****         __HAL_I2SEXT_CLEAR_OVRFLAG(hi2s);
 276:Drivers/STM32F4xx_HAL_Driver/Src/stm32f4xx_hal_i2s_ex.c ****       }
 277:Drivers/STM32F4xx_HAL_Driver/Src/stm32f4xx_hal_i2s_ex.c **** 
 278:Drivers/STM32F4xx_HAL_Driver/Src/stm32f4xx_hal_i2s_ex.c ****       while((hi2s->RxXferCount > 0U) || (hi2s->TxXferCount > 0U))
 279:Drivers/STM32F4xx_HAL_Driver/Src/stm32f4xx_hal_i2s_ex.c ****       {
 280:Drivers/STM32F4xx_HAL_Driver/Src/stm32f4xx_hal_i2s_ex.c ****         if(hi2s->TxXferCount > 0U)
 281:Drivers/STM32F4xx_HAL_Driver/Src/stm32f4xx_hal_i2s_ex.c ****         {
 282:Drivers/STM32F4xx_HAL_Driver/Src/stm32f4xx_hal_i2s_ex.c ****           /* Wait until TXE flag is set */
 283:Drivers/STM32F4xx_HAL_Driver/Src/stm32f4xx_hal_i2s_ex.c ****           if (I2SEx_FullDuplexWaitFlagStateUntilTimeout(hi2s, I2S_FLAG_TXE, SET, Timeout, I2S_USE_I
 284:Drivers/STM32F4xx_HAL_Driver/Src/stm32f4xx_hal_i2s_ex.c ****           {
 285:Drivers/STM32F4xx_HAL_Driver/Src/stm32f4xx_hal_i2s_ex.c ****             /* Set the error code and execute error callback*/
 286:Drivers/STM32F4xx_HAL_Driver/Src/stm32f4xx_hal_i2s_ex.c ****             SET_BIT(hi2s->ErrorCode, HAL_I2S_ERROR_TIMEOUT);
 287:Drivers/STM32F4xx_HAL_Driver/Src/stm32f4xx_hal_i2s_ex.c ****             HAL_I2S_ErrorCallback(hi2s);
 288:Drivers/STM32F4xx_HAL_Driver/Src/stm32f4xx_hal_i2s_ex.c ****             return HAL_TIMEOUT;
 289:Drivers/STM32F4xx_HAL_Driver/Src/stm32f4xx_hal_i2s_ex.c ****           }
 290:Drivers/STM32F4xx_HAL_Driver/Src/stm32f4xx_hal_i2s_ex.c ****           /* Write Data on DR register */
 291:Drivers/STM32F4xx_HAL_Driver/Src/stm32f4xx_hal_i2s_ex.c ****           hi2s->Instance->DR = (*pTxData++);
 292:Drivers/STM32F4xx_HAL_Driver/Src/stm32f4xx_hal_i2s_ex.c ****           hi2s->TxXferCount--;
 293:Drivers/STM32F4xx_HAL_Driver/Src/stm32f4xx_hal_i2s_ex.c **** 
 294:Drivers/STM32F4xx_HAL_Driver/Src/stm32f4xx_hal_i2s_ex.c ****           /* Check if an underrun occurs */
 295:Drivers/STM32F4xx_HAL_Driver/Src/stm32f4xx_hal_i2s_ex.c ****           if((__HAL_I2S_GET_FLAG(hi2s, I2S_FLAG_UDR) == SET) && (tmp1 == I2S_MODE_SLAVE_TX))
 296:Drivers/STM32F4xx_HAL_Driver/Src/stm32f4xx_hal_i2s_ex.c ****           {
 297:Drivers/STM32F4xx_HAL_Driver/Src/stm32f4xx_hal_i2s_ex.c ****             /* Clear Underrun flag */
 298:Drivers/STM32F4xx_HAL_Driver/Src/stm32f4xx_hal_i2s_ex.c ****             __HAL_I2S_CLEAR_UDRFLAG(hi2s);
 299:Drivers/STM32F4xx_HAL_Driver/Src/stm32f4xx_hal_i2s_ex.c **** 
 300:Drivers/STM32F4xx_HAL_Driver/Src/stm32f4xx_hal_i2s_ex.c ****             /* Set the I2S State ready */
 301:Drivers/STM32F4xx_HAL_Driver/Src/stm32f4xx_hal_i2s_ex.c ****             hi2s->State = HAL_I2S_STATE_READY;
 302:Drivers/STM32F4xx_HAL_Driver/Src/stm32f4xx_hal_i2s_ex.c **** 
 303:Drivers/STM32F4xx_HAL_Driver/Src/stm32f4xx_hal_i2s_ex.c ****             /* Process Unlocked */
 304:Drivers/STM32F4xx_HAL_Driver/Src/stm32f4xx_hal_i2s_ex.c ****             __HAL_UNLOCK(hi2s);
 305:Drivers/STM32F4xx_HAL_Driver/Src/stm32f4xx_hal_i2s_ex.c **** 
 306:Drivers/STM32F4xx_HAL_Driver/Src/stm32f4xx_hal_i2s_ex.c ****             /* Set the error code and execute error callback*/
 307:Drivers/STM32F4xx_HAL_Driver/Src/stm32f4xx_hal_i2s_ex.c ****             SET_BIT(hi2s->ErrorCode,HAL_I2S_ERROR_UDR);
 308:Drivers/STM32F4xx_HAL_Driver/Src/stm32f4xx_hal_i2s_ex.c ****             HAL_I2S_ErrorCallback(hi2s);
 309:Drivers/STM32F4xx_HAL_Driver/Src/stm32f4xx_hal_i2s_ex.c **** 
 310:Drivers/STM32F4xx_HAL_Driver/Src/stm32f4xx_hal_i2s_ex.c ****             return HAL_ERROR;
 311:Drivers/STM32F4xx_HAL_Driver/Src/stm32f4xx_hal_i2s_ex.c ****           }
 312:Drivers/STM32F4xx_HAL_Driver/Src/stm32f4xx_hal_i2s_ex.c ****         }
 313:Drivers/STM32F4xx_HAL_Driver/Src/stm32f4xx_hal_i2s_ex.c ****         if(hi2s->RxXferCount > 0U)
 314:Drivers/STM32F4xx_HAL_Driver/Src/stm32f4xx_hal_i2s_ex.c ****         {
 315:Drivers/STM32F4xx_HAL_Driver/Src/stm32f4xx_hal_i2s_ex.c ****           /* Wait until RXNE flag is set */
 316:Drivers/STM32F4xx_HAL_Driver/Src/stm32f4xx_hal_i2s_ex.c ****           if (I2SEx_FullDuplexWaitFlagStateUntilTimeout(hi2s, I2S_FLAG_RXNE, SET, Timeout, I2S_USE_
 317:Drivers/STM32F4xx_HAL_Driver/Src/stm32f4xx_hal_i2s_ex.c ****           {
ARM GAS  /tmp/ccVZ1tTs.s 			page 7


 318:Drivers/STM32F4xx_HAL_Driver/Src/stm32f4xx_hal_i2s_ex.c ****             /* Set the error code and execute error callback*/
 319:Drivers/STM32F4xx_HAL_Driver/Src/stm32f4xx_hal_i2s_ex.c ****             SET_BIT(hi2s->ErrorCode,HAL_I2S_ERROR_TIMEOUT);
 320:Drivers/STM32F4xx_HAL_Driver/Src/stm32f4xx_hal_i2s_ex.c ****             HAL_I2S_ErrorCallback(hi2s);
 321:Drivers/STM32F4xx_HAL_Driver/Src/stm32f4xx_hal_i2s_ex.c ****             return HAL_TIMEOUT;
 322:Drivers/STM32F4xx_HAL_Driver/Src/stm32f4xx_hal_i2s_ex.c ****           }
 323:Drivers/STM32F4xx_HAL_Driver/Src/stm32f4xx_hal_i2s_ex.c ****           /* Read Data from DR register */
 324:Drivers/STM32F4xx_HAL_Driver/Src/stm32f4xx_hal_i2s_ex.c ****           (*pRxData++) = I2SxEXT(hi2s->Instance)->DR;
 325:Drivers/STM32F4xx_HAL_Driver/Src/stm32f4xx_hal_i2s_ex.c ****           hi2s->RxXferCount--;
 326:Drivers/STM32F4xx_HAL_Driver/Src/stm32f4xx_hal_i2s_ex.c **** 
 327:Drivers/STM32F4xx_HAL_Driver/Src/stm32f4xx_hal_i2s_ex.c ****           /* Check if an overrun occurs */
 328:Drivers/STM32F4xx_HAL_Driver/Src/stm32f4xx_hal_i2s_ex.c ****           if(__HAL_I2SEXT_GET_FLAG(hi2s, I2S_FLAG_OVR) == SET)
 329:Drivers/STM32F4xx_HAL_Driver/Src/stm32f4xx_hal_i2s_ex.c ****           {
 330:Drivers/STM32F4xx_HAL_Driver/Src/stm32f4xx_hal_i2s_ex.c ****             /* Clear Overrun flag */
 331:Drivers/STM32F4xx_HAL_Driver/Src/stm32f4xx_hal_i2s_ex.c ****             __HAL_I2S_CLEAR_OVRFLAG(hi2s);
 332:Drivers/STM32F4xx_HAL_Driver/Src/stm32f4xx_hal_i2s_ex.c **** 
 333:Drivers/STM32F4xx_HAL_Driver/Src/stm32f4xx_hal_i2s_ex.c ****             /* Set the I2S State ready */
 334:Drivers/STM32F4xx_HAL_Driver/Src/stm32f4xx_hal_i2s_ex.c ****             hi2s->State = HAL_I2S_STATE_READY;
 335:Drivers/STM32F4xx_HAL_Driver/Src/stm32f4xx_hal_i2s_ex.c **** 
 336:Drivers/STM32F4xx_HAL_Driver/Src/stm32f4xx_hal_i2s_ex.c ****             /* Process Unlocked */
 337:Drivers/STM32F4xx_HAL_Driver/Src/stm32f4xx_hal_i2s_ex.c ****             __HAL_UNLOCK(hi2s);
 338:Drivers/STM32F4xx_HAL_Driver/Src/stm32f4xx_hal_i2s_ex.c **** 
 339:Drivers/STM32F4xx_HAL_Driver/Src/stm32f4xx_hal_i2s_ex.c ****             /* Set the error code and execute error callback*/
 340:Drivers/STM32F4xx_HAL_Driver/Src/stm32f4xx_hal_i2s_ex.c ****             SET_BIT(hi2s->ErrorCode,HAL_I2S_ERROR_OVR);
 341:Drivers/STM32F4xx_HAL_Driver/Src/stm32f4xx_hal_i2s_ex.c ****             HAL_I2S_ErrorCallback(hi2s);
 342:Drivers/STM32F4xx_HAL_Driver/Src/stm32f4xx_hal_i2s_ex.c **** 
 343:Drivers/STM32F4xx_HAL_Driver/Src/stm32f4xx_hal_i2s_ex.c ****             return HAL_ERROR;
 344:Drivers/STM32F4xx_HAL_Driver/Src/stm32f4xx_hal_i2s_ex.c ****           }
 345:Drivers/STM32F4xx_HAL_Driver/Src/stm32f4xx_hal_i2s_ex.c ****         }
 346:Drivers/STM32F4xx_HAL_Driver/Src/stm32f4xx_hal_i2s_ex.c ****       }
 347:Drivers/STM32F4xx_HAL_Driver/Src/stm32f4xx_hal_i2s_ex.c ****     }
 348:Drivers/STM32F4xx_HAL_Driver/Src/stm32f4xx_hal_i2s_ex.c ****     /* The I2S_MODE_MASTER_RX or I2S_MODE_SLAVE_RX Mode is selected */
 349:Drivers/STM32F4xx_HAL_Driver/Src/stm32f4xx_hal_i2s_ex.c ****     else
 350:Drivers/STM32F4xx_HAL_Driver/Src/stm32f4xx_hal_i2s_ex.c ****     {
 351:Drivers/STM32F4xx_HAL_Driver/Src/stm32f4xx_hal_i2s_ex.c ****       /* Prepare the First Data before enabling the I2S */
 352:Drivers/STM32F4xx_HAL_Driver/Src/stm32f4xx_hal_i2s_ex.c ****       I2SxEXT(hi2s->Instance)->DR = (*pTxData++);
 353:Drivers/STM32F4xx_HAL_Driver/Src/stm32f4xx_hal_i2s_ex.c ****       hi2s->TxXferCount--;
 354:Drivers/STM32F4xx_HAL_Driver/Src/stm32f4xx_hal_i2s_ex.c **** 
 355:Drivers/STM32F4xx_HAL_Driver/Src/stm32f4xx_hal_i2s_ex.c ****       /* Enable I2Sext(transmitter) after enabling I2Sx peripheral */
 356:Drivers/STM32F4xx_HAL_Driver/Src/stm32f4xx_hal_i2s_ex.c ****       __HAL_I2SEXT_ENABLE(hi2s);
 357:Drivers/STM32F4xx_HAL_Driver/Src/stm32f4xx_hal_i2s_ex.c ****       
 358:Drivers/STM32F4xx_HAL_Driver/Src/stm32f4xx_hal_i2s_ex.c ****       /* Enable I2S peripheral before the I2Sext*/
 359:Drivers/STM32F4xx_HAL_Driver/Src/stm32f4xx_hal_i2s_ex.c ****       __HAL_I2S_ENABLE(hi2s);
 360:Drivers/STM32F4xx_HAL_Driver/Src/stm32f4xx_hal_i2s_ex.c **** 
 361:Drivers/STM32F4xx_HAL_Driver/Src/stm32f4xx_hal_i2s_ex.c ****       /* Check if Master Receiver mode is selected */
 362:Drivers/STM32F4xx_HAL_Driver/Src/stm32f4xx_hal_i2s_ex.c ****       if((hi2s->Instance->I2SCFGR & SPI_I2SCFGR_I2SCFG) == I2S_MODE_MASTER_RX)
 363:Drivers/STM32F4xx_HAL_Driver/Src/stm32f4xx_hal_i2s_ex.c ****       {
 364:Drivers/STM32F4xx_HAL_Driver/Src/stm32f4xx_hal_i2s_ex.c ****         /* Clear the Overrun Flag by a read operation on the SPI_DR register followed by a read
 365:Drivers/STM32F4xx_HAL_Driver/Src/stm32f4xx_hal_i2s_ex.c ****         access to the SPI_SR register. */
 366:Drivers/STM32F4xx_HAL_Driver/Src/stm32f4xx_hal_i2s_ex.c ****         __HAL_I2S_CLEAR_OVRFLAG(hi2s);
 367:Drivers/STM32F4xx_HAL_Driver/Src/stm32f4xx_hal_i2s_ex.c ****       }
 368:Drivers/STM32F4xx_HAL_Driver/Src/stm32f4xx_hal_i2s_ex.c **** 
 369:Drivers/STM32F4xx_HAL_Driver/Src/stm32f4xx_hal_i2s_ex.c ****       while((hi2s->RxXferCount > 0U) || (hi2s->TxXferCount > 0U))
 370:Drivers/STM32F4xx_HAL_Driver/Src/stm32f4xx_hal_i2s_ex.c ****       {
 371:Drivers/STM32F4xx_HAL_Driver/Src/stm32f4xx_hal_i2s_ex.c ****         if(hi2s->TxXferCount > 0U)
 372:Drivers/STM32F4xx_HAL_Driver/Src/stm32f4xx_hal_i2s_ex.c ****         {
 373:Drivers/STM32F4xx_HAL_Driver/Src/stm32f4xx_hal_i2s_ex.c ****           /* Wait until TXE flag is set */
 374:Drivers/STM32F4xx_HAL_Driver/Src/stm32f4xx_hal_i2s_ex.c ****           if (I2SEx_FullDuplexWaitFlagStateUntilTimeout(hi2s, I2S_FLAG_TXE, SET, Timeout, I2S_USE_I
ARM GAS  /tmp/ccVZ1tTs.s 			page 8


 375:Drivers/STM32F4xx_HAL_Driver/Src/stm32f4xx_hal_i2s_ex.c ****           {
 376:Drivers/STM32F4xx_HAL_Driver/Src/stm32f4xx_hal_i2s_ex.c ****             /* Set the error code and execute error callback*/
 377:Drivers/STM32F4xx_HAL_Driver/Src/stm32f4xx_hal_i2s_ex.c ****             SET_BIT(hi2s->ErrorCode,HAL_I2S_ERROR_TIMEOUT);
 378:Drivers/STM32F4xx_HAL_Driver/Src/stm32f4xx_hal_i2s_ex.c ****             HAL_I2S_ErrorCallback(hi2s);
 379:Drivers/STM32F4xx_HAL_Driver/Src/stm32f4xx_hal_i2s_ex.c ****             return HAL_TIMEOUT;
 380:Drivers/STM32F4xx_HAL_Driver/Src/stm32f4xx_hal_i2s_ex.c ****           }
 381:Drivers/STM32F4xx_HAL_Driver/Src/stm32f4xx_hal_i2s_ex.c ****           /* Write Data on DR register */
 382:Drivers/STM32F4xx_HAL_Driver/Src/stm32f4xx_hal_i2s_ex.c ****           I2SxEXT(hi2s->Instance)->DR = (*pTxData++);
 383:Drivers/STM32F4xx_HAL_Driver/Src/stm32f4xx_hal_i2s_ex.c ****           hi2s->TxXferCount--;
 384:Drivers/STM32F4xx_HAL_Driver/Src/stm32f4xx_hal_i2s_ex.c **** 
 385:Drivers/STM32F4xx_HAL_Driver/Src/stm32f4xx_hal_i2s_ex.c ****           /* Check if an underrun occurs */
 386:Drivers/STM32F4xx_HAL_Driver/Src/stm32f4xx_hal_i2s_ex.c ****           if((__HAL_I2SEXT_GET_FLAG(hi2s, I2S_FLAG_UDR) == SET) && (tmp1 == I2S_MODE_SLAVE_RX))
 387:Drivers/STM32F4xx_HAL_Driver/Src/stm32f4xx_hal_i2s_ex.c ****           {
 388:Drivers/STM32F4xx_HAL_Driver/Src/stm32f4xx_hal_i2s_ex.c ****             /* Clear Underrun flag */
 389:Drivers/STM32F4xx_HAL_Driver/Src/stm32f4xx_hal_i2s_ex.c ****             __HAL_I2S_CLEAR_UDRFLAG(hi2s);
 390:Drivers/STM32F4xx_HAL_Driver/Src/stm32f4xx_hal_i2s_ex.c **** 
 391:Drivers/STM32F4xx_HAL_Driver/Src/stm32f4xx_hal_i2s_ex.c ****             /* Set the I2S State ready */
 392:Drivers/STM32F4xx_HAL_Driver/Src/stm32f4xx_hal_i2s_ex.c ****             hi2s->State = HAL_I2S_STATE_READY;
 393:Drivers/STM32F4xx_HAL_Driver/Src/stm32f4xx_hal_i2s_ex.c **** 
 394:Drivers/STM32F4xx_HAL_Driver/Src/stm32f4xx_hal_i2s_ex.c ****             /* Process Unlocked */
 395:Drivers/STM32F4xx_HAL_Driver/Src/stm32f4xx_hal_i2s_ex.c ****             __HAL_UNLOCK(hi2s);
 396:Drivers/STM32F4xx_HAL_Driver/Src/stm32f4xx_hal_i2s_ex.c **** 
 397:Drivers/STM32F4xx_HAL_Driver/Src/stm32f4xx_hal_i2s_ex.c ****             /* Set the error code and execute error callback*/
 398:Drivers/STM32F4xx_HAL_Driver/Src/stm32f4xx_hal_i2s_ex.c ****             SET_BIT(hi2s->ErrorCode,HAL_I2S_ERROR_UDR);
 399:Drivers/STM32F4xx_HAL_Driver/Src/stm32f4xx_hal_i2s_ex.c ****             HAL_I2S_ErrorCallback(hi2s);
 400:Drivers/STM32F4xx_HAL_Driver/Src/stm32f4xx_hal_i2s_ex.c **** 
 401:Drivers/STM32F4xx_HAL_Driver/Src/stm32f4xx_hal_i2s_ex.c ****             return HAL_ERROR;
 402:Drivers/STM32F4xx_HAL_Driver/Src/stm32f4xx_hal_i2s_ex.c ****           }
 403:Drivers/STM32F4xx_HAL_Driver/Src/stm32f4xx_hal_i2s_ex.c ****         }
 404:Drivers/STM32F4xx_HAL_Driver/Src/stm32f4xx_hal_i2s_ex.c ****         if(hi2s->RxXferCount > 0U)
 405:Drivers/STM32F4xx_HAL_Driver/Src/stm32f4xx_hal_i2s_ex.c ****         {
 406:Drivers/STM32F4xx_HAL_Driver/Src/stm32f4xx_hal_i2s_ex.c ****           /* Wait until RXNE flag is set */
 407:Drivers/STM32F4xx_HAL_Driver/Src/stm32f4xx_hal_i2s_ex.c ****           if (I2SEx_FullDuplexWaitFlagStateUntilTimeout(hi2s, I2S_FLAG_RXNE, SET, Timeout, I2S_USE_
 408:Drivers/STM32F4xx_HAL_Driver/Src/stm32f4xx_hal_i2s_ex.c ****           {
 409:Drivers/STM32F4xx_HAL_Driver/Src/stm32f4xx_hal_i2s_ex.c ****             /* Set the error code and execute error callback*/
 410:Drivers/STM32F4xx_HAL_Driver/Src/stm32f4xx_hal_i2s_ex.c ****             SET_BIT(hi2s->ErrorCode,HAL_I2S_ERROR_TIMEOUT);
 411:Drivers/STM32F4xx_HAL_Driver/Src/stm32f4xx_hal_i2s_ex.c ****             HAL_I2S_ErrorCallback(hi2s);
 412:Drivers/STM32F4xx_HAL_Driver/Src/stm32f4xx_hal_i2s_ex.c ****             return HAL_TIMEOUT;
 413:Drivers/STM32F4xx_HAL_Driver/Src/stm32f4xx_hal_i2s_ex.c ****           }
 414:Drivers/STM32F4xx_HAL_Driver/Src/stm32f4xx_hal_i2s_ex.c ****           /* Read Data from DR register */
 415:Drivers/STM32F4xx_HAL_Driver/Src/stm32f4xx_hal_i2s_ex.c ****           (*pRxData++) = hi2s->Instance->DR;
 416:Drivers/STM32F4xx_HAL_Driver/Src/stm32f4xx_hal_i2s_ex.c ****           hi2s->RxXferCount--;
 417:Drivers/STM32F4xx_HAL_Driver/Src/stm32f4xx_hal_i2s_ex.c **** 
 418:Drivers/STM32F4xx_HAL_Driver/Src/stm32f4xx_hal_i2s_ex.c ****           /* Check if an overrun occurs */
 419:Drivers/STM32F4xx_HAL_Driver/Src/stm32f4xx_hal_i2s_ex.c ****           if(__HAL_I2S_GET_FLAG(hi2s, I2S_FLAG_OVR) == SET)
 420:Drivers/STM32F4xx_HAL_Driver/Src/stm32f4xx_hal_i2s_ex.c ****           {
 421:Drivers/STM32F4xx_HAL_Driver/Src/stm32f4xx_hal_i2s_ex.c ****             /* Clear Overrun flag */
 422:Drivers/STM32F4xx_HAL_Driver/Src/stm32f4xx_hal_i2s_ex.c ****             __HAL_I2S_CLEAR_OVRFLAG(hi2s);
 423:Drivers/STM32F4xx_HAL_Driver/Src/stm32f4xx_hal_i2s_ex.c **** 
 424:Drivers/STM32F4xx_HAL_Driver/Src/stm32f4xx_hal_i2s_ex.c ****             /* Set the I2S State ready */
 425:Drivers/STM32F4xx_HAL_Driver/Src/stm32f4xx_hal_i2s_ex.c ****             hi2s->State = HAL_I2S_STATE_READY;
 426:Drivers/STM32F4xx_HAL_Driver/Src/stm32f4xx_hal_i2s_ex.c **** 
 427:Drivers/STM32F4xx_HAL_Driver/Src/stm32f4xx_hal_i2s_ex.c ****             /* Process Unlocked */
 428:Drivers/STM32F4xx_HAL_Driver/Src/stm32f4xx_hal_i2s_ex.c ****             __HAL_UNLOCK(hi2s);
 429:Drivers/STM32F4xx_HAL_Driver/Src/stm32f4xx_hal_i2s_ex.c **** 
 430:Drivers/STM32F4xx_HAL_Driver/Src/stm32f4xx_hal_i2s_ex.c ****             /* Set the error code and execute error callback*/
 431:Drivers/STM32F4xx_HAL_Driver/Src/stm32f4xx_hal_i2s_ex.c ****             SET_BIT(hi2s->ErrorCode,HAL_I2S_ERROR_OVR);
ARM GAS  /tmp/ccVZ1tTs.s 			page 9


 432:Drivers/STM32F4xx_HAL_Driver/Src/stm32f4xx_hal_i2s_ex.c ****             HAL_I2S_ErrorCallback(hi2s);
 433:Drivers/STM32F4xx_HAL_Driver/Src/stm32f4xx_hal_i2s_ex.c **** 
 434:Drivers/STM32F4xx_HAL_Driver/Src/stm32f4xx_hal_i2s_ex.c ****             return HAL_ERROR;
 435:Drivers/STM32F4xx_HAL_Driver/Src/stm32f4xx_hal_i2s_ex.c ****           }
 436:Drivers/STM32F4xx_HAL_Driver/Src/stm32f4xx_hal_i2s_ex.c ****         }
 437:Drivers/STM32F4xx_HAL_Driver/Src/stm32f4xx_hal_i2s_ex.c ****       }
 438:Drivers/STM32F4xx_HAL_Driver/Src/stm32f4xx_hal_i2s_ex.c ****     }
 439:Drivers/STM32F4xx_HAL_Driver/Src/stm32f4xx_hal_i2s_ex.c **** 
 440:Drivers/STM32F4xx_HAL_Driver/Src/stm32f4xx_hal_i2s_ex.c ****     /* Set the I2S State ready */
 441:Drivers/STM32F4xx_HAL_Driver/Src/stm32f4xx_hal_i2s_ex.c ****     hi2s->State = HAL_I2S_STATE_READY;
 442:Drivers/STM32F4xx_HAL_Driver/Src/stm32f4xx_hal_i2s_ex.c **** 
 443:Drivers/STM32F4xx_HAL_Driver/Src/stm32f4xx_hal_i2s_ex.c ****     /* Process Unlocked */
 444:Drivers/STM32F4xx_HAL_Driver/Src/stm32f4xx_hal_i2s_ex.c ****     __HAL_UNLOCK(hi2s);
 445:Drivers/STM32F4xx_HAL_Driver/Src/stm32f4xx_hal_i2s_ex.c **** 
 446:Drivers/STM32F4xx_HAL_Driver/Src/stm32f4xx_hal_i2s_ex.c ****     return HAL_OK;
 447:Drivers/STM32F4xx_HAL_Driver/Src/stm32f4xx_hal_i2s_ex.c ****   }
 448:Drivers/STM32F4xx_HAL_Driver/Src/stm32f4xx_hal_i2s_ex.c ****   else
 449:Drivers/STM32F4xx_HAL_Driver/Src/stm32f4xx_hal_i2s_ex.c ****   {
 450:Drivers/STM32F4xx_HAL_Driver/Src/stm32f4xx_hal_i2s_ex.c ****     return HAL_BUSY;
 451:Drivers/STM32F4xx_HAL_Driver/Src/stm32f4xx_hal_i2s_ex.c ****   }
 452:Drivers/STM32F4xx_HAL_Driver/Src/stm32f4xx_hal_i2s_ex.c **** }
 453:Drivers/STM32F4xx_HAL_Driver/Src/stm32f4xx_hal_i2s_ex.c **** 
 454:Drivers/STM32F4xx_HAL_Driver/Src/stm32f4xx_hal_i2s_ex.c **** /**
 455:Drivers/STM32F4xx_HAL_Driver/Src/stm32f4xx_hal_i2s_ex.c ****   * @brief Full-Duplex Transmit/Receive data in non-blocking mode using Interrupt
 456:Drivers/STM32F4xx_HAL_Driver/Src/stm32f4xx_hal_i2s_ex.c ****   * @param  hi2s pointer to a I2S_HandleTypeDef structure that contains
 457:Drivers/STM32F4xx_HAL_Driver/Src/stm32f4xx_hal_i2s_ex.c ****   *         the configuration information for I2S module
 458:Drivers/STM32F4xx_HAL_Driver/Src/stm32f4xx_hal_i2s_ex.c ****   * @param pTxData a 16-bit pointer to the Transmit data buffer.
 459:Drivers/STM32F4xx_HAL_Driver/Src/stm32f4xx_hal_i2s_ex.c ****   * @param pRxData a 16-bit pointer to the Receive data buffer.
 460:Drivers/STM32F4xx_HAL_Driver/Src/stm32f4xx_hal_i2s_ex.c ****   * @param Size number of data sample to be sent:
 461:Drivers/STM32F4xx_HAL_Driver/Src/stm32f4xx_hal_i2s_ex.c ****   * @note When a 16-bit data frame or a 16-bit data frame extended is selected during the I2S
 462:Drivers/STM32F4xx_HAL_Driver/Src/stm32f4xx_hal_i2s_ex.c ****   *       configuration phase, the Size parameter means the number of 16-bit data length
 463:Drivers/STM32F4xx_HAL_Driver/Src/stm32f4xx_hal_i2s_ex.c ****   *       in the transaction and when a 24-bit data frame or a 32-bit data frame is selected
 464:Drivers/STM32F4xx_HAL_Driver/Src/stm32f4xx_hal_i2s_ex.c ****   *       the Size parameter means the number of 16-bit data length.
 465:Drivers/STM32F4xx_HAL_Driver/Src/stm32f4xx_hal_i2s_ex.c ****   * @note The I2S is kept enabled at the end of transaction to avoid the clock de-synchronization
 466:Drivers/STM32F4xx_HAL_Driver/Src/stm32f4xx_hal_i2s_ex.c ****   *       between Master and Slave(example: audio streaming).
 467:Drivers/STM32F4xx_HAL_Driver/Src/stm32f4xx_hal_i2s_ex.c ****   * @retval HAL status
 468:Drivers/STM32F4xx_HAL_Driver/Src/stm32f4xx_hal_i2s_ex.c ****   */
 469:Drivers/STM32F4xx_HAL_Driver/Src/stm32f4xx_hal_i2s_ex.c **** HAL_StatusTypeDef HAL_I2SEx_TransmitReceive_IT(I2S_HandleTypeDef *hi2s, uint16_t *pTxData, uint16_t
 470:Drivers/STM32F4xx_HAL_Driver/Src/stm32f4xx_hal_i2s_ex.c ****                                                uint16_t Size)
 471:Drivers/STM32F4xx_HAL_Driver/Src/stm32f4xx_hal_i2s_ex.c **** {
 472:Drivers/STM32F4xx_HAL_Driver/Src/stm32f4xx_hal_i2s_ex.c ****   uint32_t tmp1 = 0U;
 473:Drivers/STM32F4xx_HAL_Driver/Src/stm32f4xx_hal_i2s_ex.c **** 
 474:Drivers/STM32F4xx_HAL_Driver/Src/stm32f4xx_hal_i2s_ex.c ****   if(hi2s->State == HAL_I2S_STATE_READY)
 475:Drivers/STM32F4xx_HAL_Driver/Src/stm32f4xx_hal_i2s_ex.c ****   {
 476:Drivers/STM32F4xx_HAL_Driver/Src/stm32f4xx_hal_i2s_ex.c ****     if((pTxData == NULL ) || (pRxData == NULL ) || (Size == 0U))
 477:Drivers/STM32F4xx_HAL_Driver/Src/stm32f4xx_hal_i2s_ex.c ****     {
 478:Drivers/STM32F4xx_HAL_Driver/Src/stm32f4xx_hal_i2s_ex.c ****       return  HAL_ERROR;
 479:Drivers/STM32F4xx_HAL_Driver/Src/stm32f4xx_hal_i2s_ex.c ****     }
 480:Drivers/STM32F4xx_HAL_Driver/Src/stm32f4xx_hal_i2s_ex.c **** 
 481:Drivers/STM32F4xx_HAL_Driver/Src/stm32f4xx_hal_i2s_ex.c ****     hi2s->pTxBuffPtr = pTxData;
 482:Drivers/STM32F4xx_HAL_Driver/Src/stm32f4xx_hal_i2s_ex.c ****     hi2s->pRxBuffPtr = pRxData;
 483:Drivers/STM32F4xx_HAL_Driver/Src/stm32f4xx_hal_i2s_ex.c **** 
 484:Drivers/STM32F4xx_HAL_Driver/Src/stm32f4xx_hal_i2s_ex.c ****     tmp1 = hi2s->Instance->I2SCFGR & (SPI_I2SCFGR_DATLEN | SPI_I2SCFGR_CHLEN);
 485:Drivers/STM32F4xx_HAL_Driver/Src/stm32f4xx_hal_i2s_ex.c ****     /* Check the Data format: When a 16-bit data frame or a 16-bit data frame extended
 486:Drivers/STM32F4xx_HAL_Driver/Src/stm32f4xx_hal_i2s_ex.c ****     is selected during the I2S configuration phase, the Size parameter means the number
 487:Drivers/STM32F4xx_HAL_Driver/Src/stm32f4xx_hal_i2s_ex.c ****     of 16-bit data length in the transaction and when a 24-bit data frame or a 32-bit data
 488:Drivers/STM32F4xx_HAL_Driver/Src/stm32f4xx_hal_i2s_ex.c ****     frame is selected the Size parameter means the number of 16-bit data length. */
ARM GAS  /tmp/ccVZ1tTs.s 			page 10


 489:Drivers/STM32F4xx_HAL_Driver/Src/stm32f4xx_hal_i2s_ex.c ****     if((tmp1 == I2S_DATAFORMAT_24B) || (tmp1 == I2S_DATAFORMAT_32B))
 490:Drivers/STM32F4xx_HAL_Driver/Src/stm32f4xx_hal_i2s_ex.c ****     {
 491:Drivers/STM32F4xx_HAL_Driver/Src/stm32f4xx_hal_i2s_ex.c ****       hi2s->TxXferSize  = (Size << 1U);
 492:Drivers/STM32F4xx_HAL_Driver/Src/stm32f4xx_hal_i2s_ex.c ****       hi2s->TxXferCount = (Size << 1U);
 493:Drivers/STM32F4xx_HAL_Driver/Src/stm32f4xx_hal_i2s_ex.c ****       hi2s->RxXferSize  = (Size << 1U);
 494:Drivers/STM32F4xx_HAL_Driver/Src/stm32f4xx_hal_i2s_ex.c ****       hi2s->RxXferCount = (Size << 1U);
 495:Drivers/STM32F4xx_HAL_Driver/Src/stm32f4xx_hal_i2s_ex.c ****     }
 496:Drivers/STM32F4xx_HAL_Driver/Src/stm32f4xx_hal_i2s_ex.c ****     else
 497:Drivers/STM32F4xx_HAL_Driver/Src/stm32f4xx_hal_i2s_ex.c ****     {
 498:Drivers/STM32F4xx_HAL_Driver/Src/stm32f4xx_hal_i2s_ex.c ****       hi2s->TxXferSize  = Size;
 499:Drivers/STM32F4xx_HAL_Driver/Src/stm32f4xx_hal_i2s_ex.c ****       hi2s->TxXferCount = Size;
 500:Drivers/STM32F4xx_HAL_Driver/Src/stm32f4xx_hal_i2s_ex.c ****       hi2s->RxXferSize  = Size;
 501:Drivers/STM32F4xx_HAL_Driver/Src/stm32f4xx_hal_i2s_ex.c ****       hi2s->RxXferCount = Size;
 502:Drivers/STM32F4xx_HAL_Driver/Src/stm32f4xx_hal_i2s_ex.c ****     }
 503:Drivers/STM32F4xx_HAL_Driver/Src/stm32f4xx_hal_i2s_ex.c **** 
 504:Drivers/STM32F4xx_HAL_Driver/Src/stm32f4xx_hal_i2s_ex.c ****     /* Process Locked */
 505:Drivers/STM32F4xx_HAL_Driver/Src/stm32f4xx_hal_i2s_ex.c ****     __HAL_LOCK(hi2s);
 506:Drivers/STM32F4xx_HAL_Driver/Src/stm32f4xx_hal_i2s_ex.c **** 
 507:Drivers/STM32F4xx_HAL_Driver/Src/stm32f4xx_hal_i2s_ex.c ****     hi2s->ErrorCode = HAL_I2S_ERROR_NONE;
 508:Drivers/STM32F4xx_HAL_Driver/Src/stm32f4xx_hal_i2s_ex.c ****     hi2s->State     = HAL_I2S_STATE_BUSY_TX_RX;
 509:Drivers/STM32F4xx_HAL_Driver/Src/stm32f4xx_hal_i2s_ex.c **** 
 510:Drivers/STM32F4xx_HAL_Driver/Src/stm32f4xx_hal_i2s_ex.c ****     tmp1 = hi2s->Instance->I2SCFGR & SPI_I2SCFGR_I2SCFG;
 511:Drivers/STM32F4xx_HAL_Driver/Src/stm32f4xx_hal_i2s_ex.c ****     /* Check if the I2S_MODE_MASTER_TX or I2S_MODE_SLAVE_TX Mode is selected */
 512:Drivers/STM32F4xx_HAL_Driver/Src/stm32f4xx_hal_i2s_ex.c ****     if((tmp1 == I2S_MODE_MASTER_TX) || (tmp1 == I2S_MODE_SLAVE_TX))
 513:Drivers/STM32F4xx_HAL_Driver/Src/stm32f4xx_hal_i2s_ex.c ****     {
 514:Drivers/STM32F4xx_HAL_Driver/Src/stm32f4xx_hal_i2s_ex.c ****       /* Enable I2Sext RXNE and ERR interrupts */
 515:Drivers/STM32F4xx_HAL_Driver/Src/stm32f4xx_hal_i2s_ex.c ****       __HAL_I2SEXT_ENABLE_IT(hi2s, (I2S_IT_RXNE | I2S_IT_ERR));
 516:Drivers/STM32F4xx_HAL_Driver/Src/stm32f4xx_hal_i2s_ex.c **** 
 517:Drivers/STM32F4xx_HAL_Driver/Src/stm32f4xx_hal_i2s_ex.c ****       /* Enable I2Sx TXE and ERR interrupts */
 518:Drivers/STM32F4xx_HAL_Driver/Src/stm32f4xx_hal_i2s_ex.c ****       __HAL_I2S_ENABLE_IT(hi2s, (I2S_IT_TXE | I2S_IT_ERR));
 519:Drivers/STM32F4xx_HAL_Driver/Src/stm32f4xx_hal_i2s_ex.c **** 
 520:Drivers/STM32F4xx_HAL_Driver/Src/stm32f4xx_hal_i2s_ex.c ****       /* Check if the I2S is already enabled */
 521:Drivers/STM32F4xx_HAL_Driver/Src/stm32f4xx_hal_i2s_ex.c ****       if((hi2s->Instance->I2SCFGR &SPI_I2SCFGR_I2SE) != SPI_I2SCFGR_I2SE)
 522:Drivers/STM32F4xx_HAL_Driver/Src/stm32f4xx_hal_i2s_ex.c ****       {
 523:Drivers/STM32F4xx_HAL_Driver/Src/stm32f4xx_hal_i2s_ex.c ****         if((hi2s->Instance->I2SCFGR & SPI_I2SCFGR_I2SCFG) == I2S_MODE_SLAVE_TX)
 524:Drivers/STM32F4xx_HAL_Driver/Src/stm32f4xx_hal_i2s_ex.c ****         {
 525:Drivers/STM32F4xx_HAL_Driver/Src/stm32f4xx_hal_i2s_ex.c ****           /* Prepare the First Data before enabling the I2S */
 526:Drivers/STM32F4xx_HAL_Driver/Src/stm32f4xx_hal_i2s_ex.c ****           if(hi2s->TxXferCount != 0U)
 527:Drivers/STM32F4xx_HAL_Driver/Src/stm32f4xx_hal_i2s_ex.c ****           {
 528:Drivers/STM32F4xx_HAL_Driver/Src/stm32f4xx_hal_i2s_ex.c ****             /* Transmit First data */
 529:Drivers/STM32F4xx_HAL_Driver/Src/stm32f4xx_hal_i2s_ex.c ****             hi2s->Instance->DR = (*hi2s->pTxBuffPtr++);
 530:Drivers/STM32F4xx_HAL_Driver/Src/stm32f4xx_hal_i2s_ex.c ****             hi2s->TxXferCount--;
 531:Drivers/STM32F4xx_HAL_Driver/Src/stm32f4xx_hal_i2s_ex.c **** 
 532:Drivers/STM32F4xx_HAL_Driver/Src/stm32f4xx_hal_i2s_ex.c ****             if(hi2s->TxXferCount == 0U)
 533:Drivers/STM32F4xx_HAL_Driver/Src/stm32f4xx_hal_i2s_ex.c ****             {
 534:Drivers/STM32F4xx_HAL_Driver/Src/stm32f4xx_hal_i2s_ex.c ****               /* Disable TXE and ERR interrupt */
 535:Drivers/STM32F4xx_HAL_Driver/Src/stm32f4xx_hal_i2s_ex.c ****               __HAL_I2S_DISABLE_IT(hi2s, (I2S_IT_TXE | I2S_IT_ERR));
 536:Drivers/STM32F4xx_HAL_Driver/Src/stm32f4xx_hal_i2s_ex.c **** 
 537:Drivers/STM32F4xx_HAL_Driver/Src/stm32f4xx_hal_i2s_ex.c ****               if(hi2s->RxXferCount == 0U)
 538:Drivers/STM32F4xx_HAL_Driver/Src/stm32f4xx_hal_i2s_ex.c ****               {
 539:Drivers/STM32F4xx_HAL_Driver/Src/stm32f4xx_hal_i2s_ex.c ****                 /* Disable I2Sext RXNE and ERR interrupt */
 540:Drivers/STM32F4xx_HAL_Driver/Src/stm32f4xx_hal_i2s_ex.c ****                 __HAL_I2SEXT_DISABLE_IT(hi2s, (I2S_IT_RXNE| I2S_IT_ERR));
 541:Drivers/STM32F4xx_HAL_Driver/Src/stm32f4xx_hal_i2s_ex.c **** 
 542:Drivers/STM32F4xx_HAL_Driver/Src/stm32f4xx_hal_i2s_ex.c ****                 hi2s->State = HAL_I2S_STATE_READY;
 543:Drivers/STM32F4xx_HAL_Driver/Src/stm32f4xx_hal_i2s_ex.c ****                 HAL_I2SEx_TxRxCpltCallback(hi2s);
 544:Drivers/STM32F4xx_HAL_Driver/Src/stm32f4xx_hal_i2s_ex.c ****               }
 545:Drivers/STM32F4xx_HAL_Driver/Src/stm32f4xx_hal_i2s_ex.c ****             }
ARM GAS  /tmp/ccVZ1tTs.s 			page 11


 546:Drivers/STM32F4xx_HAL_Driver/Src/stm32f4xx_hal_i2s_ex.c ****           }
 547:Drivers/STM32F4xx_HAL_Driver/Src/stm32f4xx_hal_i2s_ex.c ****         }
 548:Drivers/STM32F4xx_HAL_Driver/Src/stm32f4xx_hal_i2s_ex.c ****         /* Enable I2Sext(receiver) before enabling I2Sx peripheral */
 549:Drivers/STM32F4xx_HAL_Driver/Src/stm32f4xx_hal_i2s_ex.c ****         __HAL_I2SEXT_ENABLE(hi2s);
 550:Drivers/STM32F4xx_HAL_Driver/Src/stm32f4xx_hal_i2s_ex.c **** 
 551:Drivers/STM32F4xx_HAL_Driver/Src/stm32f4xx_hal_i2s_ex.c ****         /* Enable I2Sx peripheral */
 552:Drivers/STM32F4xx_HAL_Driver/Src/stm32f4xx_hal_i2s_ex.c ****         __HAL_I2S_ENABLE(hi2s);
 553:Drivers/STM32F4xx_HAL_Driver/Src/stm32f4xx_hal_i2s_ex.c ****       }
 554:Drivers/STM32F4xx_HAL_Driver/Src/stm32f4xx_hal_i2s_ex.c ****     }
 555:Drivers/STM32F4xx_HAL_Driver/Src/stm32f4xx_hal_i2s_ex.c ****     /* The I2S_MODE_MASTER_RX or I2S_MODE_SLAVE_RX Mode is selected */
 556:Drivers/STM32F4xx_HAL_Driver/Src/stm32f4xx_hal_i2s_ex.c ****     else
 557:Drivers/STM32F4xx_HAL_Driver/Src/stm32f4xx_hal_i2s_ex.c ****     {
 558:Drivers/STM32F4xx_HAL_Driver/Src/stm32f4xx_hal_i2s_ex.c ****       /* Enable I2Sext TXE and ERR interrupts */
 559:Drivers/STM32F4xx_HAL_Driver/Src/stm32f4xx_hal_i2s_ex.c ****       __HAL_I2SEXT_ENABLE_IT(hi2s, (I2S_IT_TXE | I2S_IT_ERR));
 560:Drivers/STM32F4xx_HAL_Driver/Src/stm32f4xx_hal_i2s_ex.c **** 
 561:Drivers/STM32F4xx_HAL_Driver/Src/stm32f4xx_hal_i2s_ex.c ****       /* Enable I2Sext RXNE and ERR interrupts */
 562:Drivers/STM32F4xx_HAL_Driver/Src/stm32f4xx_hal_i2s_ex.c ****       __HAL_I2S_ENABLE_IT(hi2s, (I2S_IT_RXNE | I2S_IT_ERR));
 563:Drivers/STM32F4xx_HAL_Driver/Src/stm32f4xx_hal_i2s_ex.c **** 
 564:Drivers/STM32F4xx_HAL_Driver/Src/stm32f4xx_hal_i2s_ex.c ****       /* Check if the I2S is already enabled */
 565:Drivers/STM32F4xx_HAL_Driver/Src/stm32f4xx_hal_i2s_ex.c ****       if((hi2s->Instance->I2SCFGR &SPI_I2SCFGR_I2SE) != SPI_I2SCFGR_I2SE)
 566:Drivers/STM32F4xx_HAL_Driver/Src/stm32f4xx_hal_i2s_ex.c ****       {
 567:Drivers/STM32F4xx_HAL_Driver/Src/stm32f4xx_hal_i2s_ex.c ****         /* Check if the I2S_MODE_MASTER_RX is selected */
 568:Drivers/STM32F4xx_HAL_Driver/Src/stm32f4xx_hal_i2s_ex.c ****         if((hi2s->Instance->I2SCFGR & SPI_I2SCFGR_I2SCFG) == I2S_MODE_MASTER_RX)
 569:Drivers/STM32F4xx_HAL_Driver/Src/stm32f4xx_hal_i2s_ex.c ****         {
 570:Drivers/STM32F4xx_HAL_Driver/Src/stm32f4xx_hal_i2s_ex.c ****           /* Prepare the First Data before enabling the I2S */
 571:Drivers/STM32F4xx_HAL_Driver/Src/stm32f4xx_hal_i2s_ex.c ****           if(hi2s->TxXferCount != 0U)
 572:Drivers/STM32F4xx_HAL_Driver/Src/stm32f4xx_hal_i2s_ex.c ****           {
 573:Drivers/STM32F4xx_HAL_Driver/Src/stm32f4xx_hal_i2s_ex.c ****             /* Transmit First data */
 574:Drivers/STM32F4xx_HAL_Driver/Src/stm32f4xx_hal_i2s_ex.c ****             I2SxEXT(hi2s->Instance)->DR = (*hi2s->pTxBuffPtr++);
 575:Drivers/STM32F4xx_HAL_Driver/Src/stm32f4xx_hal_i2s_ex.c ****             hi2s->TxXferCount--;
 576:Drivers/STM32F4xx_HAL_Driver/Src/stm32f4xx_hal_i2s_ex.c **** 
 577:Drivers/STM32F4xx_HAL_Driver/Src/stm32f4xx_hal_i2s_ex.c ****             if(hi2s->TxXferCount == 0U)
 578:Drivers/STM32F4xx_HAL_Driver/Src/stm32f4xx_hal_i2s_ex.c ****             {
 579:Drivers/STM32F4xx_HAL_Driver/Src/stm32f4xx_hal_i2s_ex.c ****               /* Disable I2Sext TXE and ERR interrupt */
 580:Drivers/STM32F4xx_HAL_Driver/Src/stm32f4xx_hal_i2s_ex.c ****               __HAL_I2SEXT_DISABLE_IT(hi2s, (I2S_IT_TXE | I2S_IT_ERR));
 581:Drivers/STM32F4xx_HAL_Driver/Src/stm32f4xx_hal_i2s_ex.c ****               if(hi2s->RxXferCount == 0U)
 582:Drivers/STM32F4xx_HAL_Driver/Src/stm32f4xx_hal_i2s_ex.c ****               {
 583:Drivers/STM32F4xx_HAL_Driver/Src/stm32f4xx_hal_i2s_ex.c ****                 /* Disable RXNE and ERR interrupt */
 584:Drivers/STM32F4xx_HAL_Driver/Src/stm32f4xx_hal_i2s_ex.c ****                 __HAL_I2S_DISABLE_IT(hi2s, (I2S_IT_RXNE| I2S_IT_ERR));
 585:Drivers/STM32F4xx_HAL_Driver/Src/stm32f4xx_hal_i2s_ex.c **** 
 586:Drivers/STM32F4xx_HAL_Driver/Src/stm32f4xx_hal_i2s_ex.c ****                 hi2s->State = HAL_I2S_STATE_READY;
 587:Drivers/STM32F4xx_HAL_Driver/Src/stm32f4xx_hal_i2s_ex.c ****                 HAL_I2SEx_TxRxCpltCallback(hi2s);
 588:Drivers/STM32F4xx_HAL_Driver/Src/stm32f4xx_hal_i2s_ex.c ****               }
 589:Drivers/STM32F4xx_HAL_Driver/Src/stm32f4xx_hal_i2s_ex.c ****             }
 590:Drivers/STM32F4xx_HAL_Driver/Src/stm32f4xx_hal_i2s_ex.c ****           }
 591:Drivers/STM32F4xx_HAL_Driver/Src/stm32f4xx_hal_i2s_ex.c ****         }
 592:Drivers/STM32F4xx_HAL_Driver/Src/stm32f4xx_hal_i2s_ex.c ****         /* Enable I2Sext(transmitter) after enabling I2Sx peripheral */
 593:Drivers/STM32F4xx_HAL_Driver/Src/stm32f4xx_hal_i2s_ex.c ****         __HAL_I2SEXT_ENABLE(hi2s);
 594:Drivers/STM32F4xx_HAL_Driver/Src/stm32f4xx_hal_i2s_ex.c **** 
 595:Drivers/STM32F4xx_HAL_Driver/Src/stm32f4xx_hal_i2s_ex.c ****         /* Enable I2S peripheral */
 596:Drivers/STM32F4xx_HAL_Driver/Src/stm32f4xx_hal_i2s_ex.c ****         __HAL_I2S_ENABLE(hi2s);
 597:Drivers/STM32F4xx_HAL_Driver/Src/stm32f4xx_hal_i2s_ex.c ****       }
 598:Drivers/STM32F4xx_HAL_Driver/Src/stm32f4xx_hal_i2s_ex.c ****     }
 599:Drivers/STM32F4xx_HAL_Driver/Src/stm32f4xx_hal_i2s_ex.c ****     /* Process Unlocked */
 600:Drivers/STM32F4xx_HAL_Driver/Src/stm32f4xx_hal_i2s_ex.c ****     __HAL_UNLOCK(hi2s);
 601:Drivers/STM32F4xx_HAL_Driver/Src/stm32f4xx_hal_i2s_ex.c **** 
 602:Drivers/STM32F4xx_HAL_Driver/Src/stm32f4xx_hal_i2s_ex.c ****     return HAL_OK;
ARM GAS  /tmp/ccVZ1tTs.s 			page 12


 603:Drivers/STM32F4xx_HAL_Driver/Src/stm32f4xx_hal_i2s_ex.c ****   }
 604:Drivers/STM32F4xx_HAL_Driver/Src/stm32f4xx_hal_i2s_ex.c ****   else
 605:Drivers/STM32F4xx_HAL_Driver/Src/stm32f4xx_hal_i2s_ex.c ****   {
 606:Drivers/STM32F4xx_HAL_Driver/Src/stm32f4xx_hal_i2s_ex.c ****     return HAL_BUSY;
 607:Drivers/STM32F4xx_HAL_Driver/Src/stm32f4xx_hal_i2s_ex.c ****   }
 608:Drivers/STM32F4xx_HAL_Driver/Src/stm32f4xx_hal_i2s_ex.c **** }
 609:Drivers/STM32F4xx_HAL_Driver/Src/stm32f4xx_hal_i2s_ex.c **** 
 610:Drivers/STM32F4xx_HAL_Driver/Src/stm32f4xx_hal_i2s_ex.c **** /**
 611:Drivers/STM32F4xx_HAL_Driver/Src/stm32f4xx_hal_i2s_ex.c ****   * @brief Full-Duplex Transmit/Receive data in non-blocking mode using DMA
 612:Drivers/STM32F4xx_HAL_Driver/Src/stm32f4xx_hal_i2s_ex.c ****   * @param  hi2s pointer to a I2S_HandleTypeDef structure that contains
 613:Drivers/STM32F4xx_HAL_Driver/Src/stm32f4xx_hal_i2s_ex.c ****   *         the configuration information for I2S module
 614:Drivers/STM32F4xx_HAL_Driver/Src/stm32f4xx_hal_i2s_ex.c ****   * @param pTxData a 16-bit pointer to the Transmit data buffer.
 615:Drivers/STM32F4xx_HAL_Driver/Src/stm32f4xx_hal_i2s_ex.c ****   * @param pRxData a 16-bit pointer to the Receive data buffer.
 616:Drivers/STM32F4xx_HAL_Driver/Src/stm32f4xx_hal_i2s_ex.c ****   * @param Size number of data sample to be sent:
 617:Drivers/STM32F4xx_HAL_Driver/Src/stm32f4xx_hal_i2s_ex.c ****   * @note When a 16-bit data frame or a 16-bit data frame extended is selected during the I2S
 618:Drivers/STM32F4xx_HAL_Driver/Src/stm32f4xx_hal_i2s_ex.c ****   *       configuration phase, the Size parameter means the number of 16-bit data length
 619:Drivers/STM32F4xx_HAL_Driver/Src/stm32f4xx_hal_i2s_ex.c ****   *       in the transaction and when a 24-bit data frame or a 32-bit data frame is selected
 620:Drivers/STM32F4xx_HAL_Driver/Src/stm32f4xx_hal_i2s_ex.c ****   *       the Size parameter means the number of 16-bit data length.
 621:Drivers/STM32F4xx_HAL_Driver/Src/stm32f4xx_hal_i2s_ex.c ****   * @note The I2S is kept enabled at the end of transaction to avoid the clock de-synchronization
 622:Drivers/STM32F4xx_HAL_Driver/Src/stm32f4xx_hal_i2s_ex.c ****   *       between Master and Slave(example: audio streaming).
 623:Drivers/STM32F4xx_HAL_Driver/Src/stm32f4xx_hal_i2s_ex.c ****   * @retval HAL status
 624:Drivers/STM32F4xx_HAL_Driver/Src/stm32f4xx_hal_i2s_ex.c ****   */
 625:Drivers/STM32F4xx_HAL_Driver/Src/stm32f4xx_hal_i2s_ex.c **** HAL_StatusTypeDef HAL_I2SEx_TransmitReceive_DMA(I2S_HandleTypeDef *hi2s, uint16_t *pTxData, uint16_
 626:Drivers/STM32F4xx_HAL_Driver/Src/stm32f4xx_hal_i2s_ex.c ****                                                 uint16_t Size)
 627:Drivers/STM32F4xx_HAL_Driver/Src/stm32f4xx_hal_i2s_ex.c **** {
 628:Drivers/STM32F4xx_HAL_Driver/Src/stm32f4xx_hal_i2s_ex.c ****   uint32_t *tmp = NULL;
 629:Drivers/STM32F4xx_HAL_Driver/Src/stm32f4xx_hal_i2s_ex.c ****   uint32_t tmp1 = 0U;
 630:Drivers/STM32F4xx_HAL_Driver/Src/stm32f4xx_hal_i2s_ex.c **** 
 631:Drivers/STM32F4xx_HAL_Driver/Src/stm32f4xx_hal_i2s_ex.c ****   if((pTxData == NULL ) || (pRxData == NULL ) || (Size == 0U))
 632:Drivers/STM32F4xx_HAL_Driver/Src/stm32f4xx_hal_i2s_ex.c ****   {
 633:Drivers/STM32F4xx_HAL_Driver/Src/stm32f4xx_hal_i2s_ex.c ****     return  HAL_ERROR;
 634:Drivers/STM32F4xx_HAL_Driver/Src/stm32f4xx_hal_i2s_ex.c ****   }
 635:Drivers/STM32F4xx_HAL_Driver/Src/stm32f4xx_hal_i2s_ex.c **** 
 636:Drivers/STM32F4xx_HAL_Driver/Src/stm32f4xx_hal_i2s_ex.c ****   if(hi2s->State == HAL_I2S_STATE_READY)
 637:Drivers/STM32F4xx_HAL_Driver/Src/stm32f4xx_hal_i2s_ex.c ****   {
 638:Drivers/STM32F4xx_HAL_Driver/Src/stm32f4xx_hal_i2s_ex.c ****     hi2s->pTxBuffPtr = pTxData;
 639:Drivers/STM32F4xx_HAL_Driver/Src/stm32f4xx_hal_i2s_ex.c ****     hi2s->pRxBuffPtr = pRxData;
 640:Drivers/STM32F4xx_HAL_Driver/Src/stm32f4xx_hal_i2s_ex.c **** 
 641:Drivers/STM32F4xx_HAL_Driver/Src/stm32f4xx_hal_i2s_ex.c ****     tmp1 = hi2s->Instance->I2SCFGR & (SPI_I2SCFGR_DATLEN | SPI_I2SCFGR_CHLEN);
 642:Drivers/STM32F4xx_HAL_Driver/Src/stm32f4xx_hal_i2s_ex.c ****     /* Check the Data format: When a 16-bit data frame or a 16-bit data frame extended
 643:Drivers/STM32F4xx_HAL_Driver/Src/stm32f4xx_hal_i2s_ex.c ****     is selected during the I2S configuration phase, the Size parameter means the number
 644:Drivers/STM32F4xx_HAL_Driver/Src/stm32f4xx_hal_i2s_ex.c ****     of 16-bit data length in the transaction and when a 24-bit data frame or a 32-bit data
 645:Drivers/STM32F4xx_HAL_Driver/Src/stm32f4xx_hal_i2s_ex.c ****     frame is selected the Size parameter means the number of 16-bit data length. */
 646:Drivers/STM32F4xx_HAL_Driver/Src/stm32f4xx_hal_i2s_ex.c ****     if((tmp1 == I2S_DATAFORMAT_24B) || (tmp1 == I2S_DATAFORMAT_32B))
 647:Drivers/STM32F4xx_HAL_Driver/Src/stm32f4xx_hal_i2s_ex.c ****     {
 648:Drivers/STM32F4xx_HAL_Driver/Src/stm32f4xx_hal_i2s_ex.c ****       hi2s->TxXferSize  = (Size << 1U);
 649:Drivers/STM32F4xx_HAL_Driver/Src/stm32f4xx_hal_i2s_ex.c ****       hi2s->TxXferCount = (Size << 1U);
 650:Drivers/STM32F4xx_HAL_Driver/Src/stm32f4xx_hal_i2s_ex.c ****       hi2s->RxXferSize  = (Size << 1U);
 651:Drivers/STM32F4xx_HAL_Driver/Src/stm32f4xx_hal_i2s_ex.c ****       hi2s->RxXferCount = (Size << 1U);
 652:Drivers/STM32F4xx_HAL_Driver/Src/stm32f4xx_hal_i2s_ex.c ****     }
 653:Drivers/STM32F4xx_HAL_Driver/Src/stm32f4xx_hal_i2s_ex.c ****     else
 654:Drivers/STM32F4xx_HAL_Driver/Src/stm32f4xx_hal_i2s_ex.c ****     {
 655:Drivers/STM32F4xx_HAL_Driver/Src/stm32f4xx_hal_i2s_ex.c ****       hi2s->TxXferSize  = Size;
 656:Drivers/STM32F4xx_HAL_Driver/Src/stm32f4xx_hal_i2s_ex.c ****       hi2s->TxXferCount = Size;
 657:Drivers/STM32F4xx_HAL_Driver/Src/stm32f4xx_hal_i2s_ex.c ****       hi2s->RxXferSize  = Size;
 658:Drivers/STM32F4xx_HAL_Driver/Src/stm32f4xx_hal_i2s_ex.c ****       hi2s->RxXferCount = Size;
 659:Drivers/STM32F4xx_HAL_Driver/Src/stm32f4xx_hal_i2s_ex.c ****     }
ARM GAS  /tmp/ccVZ1tTs.s 			page 13


 660:Drivers/STM32F4xx_HAL_Driver/Src/stm32f4xx_hal_i2s_ex.c **** 
 661:Drivers/STM32F4xx_HAL_Driver/Src/stm32f4xx_hal_i2s_ex.c ****     /* Process Locked */
 662:Drivers/STM32F4xx_HAL_Driver/Src/stm32f4xx_hal_i2s_ex.c ****     __HAL_LOCK(hi2s);
 663:Drivers/STM32F4xx_HAL_Driver/Src/stm32f4xx_hal_i2s_ex.c **** 
 664:Drivers/STM32F4xx_HAL_Driver/Src/stm32f4xx_hal_i2s_ex.c ****     hi2s->ErrorCode = HAL_I2S_ERROR_NONE;
 665:Drivers/STM32F4xx_HAL_Driver/Src/stm32f4xx_hal_i2s_ex.c ****     hi2s->State     = HAL_I2S_STATE_BUSY_TX_RX;
 666:Drivers/STM32F4xx_HAL_Driver/Src/stm32f4xx_hal_i2s_ex.c **** 
 667:Drivers/STM32F4xx_HAL_Driver/Src/stm32f4xx_hal_i2s_ex.c ****     /* Set the I2S Rx DMA Half transfer complete callback */
 668:Drivers/STM32F4xx_HAL_Driver/Src/stm32f4xx_hal_i2s_ex.c ****     hi2s->hdmarx->XferHalfCpltCallback = I2SEx_TxRxDMAHalfCplt;
 669:Drivers/STM32F4xx_HAL_Driver/Src/stm32f4xx_hal_i2s_ex.c **** 
 670:Drivers/STM32F4xx_HAL_Driver/Src/stm32f4xx_hal_i2s_ex.c ****     /* Set the I2S Rx DMA transfer complete callback */
 671:Drivers/STM32F4xx_HAL_Driver/Src/stm32f4xx_hal_i2s_ex.c ****     hi2s->hdmarx->XferCpltCallback  = I2SEx_TxRxDMACplt;
 672:Drivers/STM32F4xx_HAL_Driver/Src/stm32f4xx_hal_i2s_ex.c **** 
 673:Drivers/STM32F4xx_HAL_Driver/Src/stm32f4xx_hal_i2s_ex.c ****     /* Set the I2S Rx DMA error callback */
 674:Drivers/STM32F4xx_HAL_Driver/Src/stm32f4xx_hal_i2s_ex.c ****     hi2s->hdmarx->XferErrorCallback = I2SEx_TxRxDMAError;
 675:Drivers/STM32F4xx_HAL_Driver/Src/stm32f4xx_hal_i2s_ex.c **** 
 676:Drivers/STM32F4xx_HAL_Driver/Src/stm32f4xx_hal_i2s_ex.c ****     /* Set the I2S Tx DMA Half transfer complete callback */
 677:Drivers/STM32F4xx_HAL_Driver/Src/stm32f4xx_hal_i2s_ex.c ****     hi2s->hdmatx->XferHalfCpltCallback  = I2SEx_TxRxDMAHalfCplt;
 678:Drivers/STM32F4xx_HAL_Driver/Src/stm32f4xx_hal_i2s_ex.c **** 
 679:Drivers/STM32F4xx_HAL_Driver/Src/stm32f4xx_hal_i2s_ex.c ****     /* Set the I2S Tx DMA transfer complete callback */
 680:Drivers/STM32F4xx_HAL_Driver/Src/stm32f4xx_hal_i2s_ex.c ****     hi2s->hdmatx->XferCpltCallback  = I2SEx_TxRxDMACplt;
 681:Drivers/STM32F4xx_HAL_Driver/Src/stm32f4xx_hal_i2s_ex.c **** 
 682:Drivers/STM32F4xx_HAL_Driver/Src/stm32f4xx_hal_i2s_ex.c ****     /* Set the I2S Tx DMA error callback */
 683:Drivers/STM32F4xx_HAL_Driver/Src/stm32f4xx_hal_i2s_ex.c ****     hi2s->hdmatx->XferErrorCallback = I2SEx_TxRxDMAError;
 684:Drivers/STM32F4xx_HAL_Driver/Src/stm32f4xx_hal_i2s_ex.c **** 
 685:Drivers/STM32F4xx_HAL_Driver/Src/stm32f4xx_hal_i2s_ex.c ****     tmp1 = hi2s->Instance->I2SCFGR & SPI_I2SCFGR_I2SCFG;
 686:Drivers/STM32F4xx_HAL_Driver/Src/stm32f4xx_hal_i2s_ex.c ****     /* Check if the I2S_MODE_MASTER_TX or I2S_MODE_SLAVE_TX Mode is selected */
 687:Drivers/STM32F4xx_HAL_Driver/Src/stm32f4xx_hal_i2s_ex.c ****     if((tmp1 == I2S_MODE_MASTER_TX) || (tmp1 == I2S_MODE_SLAVE_TX))
 688:Drivers/STM32F4xx_HAL_Driver/Src/stm32f4xx_hal_i2s_ex.c ****     {
 689:Drivers/STM32F4xx_HAL_Driver/Src/stm32f4xx_hal_i2s_ex.c ****       /* Enable the Rx DMA Stream */
 690:Drivers/STM32F4xx_HAL_Driver/Src/stm32f4xx_hal_i2s_ex.c ****       tmp = (uint32_t*)&pRxData;
 691:Drivers/STM32F4xx_HAL_Driver/Src/stm32f4xx_hal_i2s_ex.c ****       HAL_DMA_Start_IT(hi2s->hdmarx, (uint32_t)&I2SxEXT(hi2s->Instance)->DR, *(uint32_t*)tmp, hi2s-
 692:Drivers/STM32F4xx_HAL_Driver/Src/stm32f4xx_hal_i2s_ex.c **** 
 693:Drivers/STM32F4xx_HAL_Driver/Src/stm32f4xx_hal_i2s_ex.c ****       /* Enable Rx DMA Request */
 694:Drivers/STM32F4xx_HAL_Driver/Src/stm32f4xx_hal_i2s_ex.c ****       SET_BIT(I2SxEXT(hi2s->Instance)->CR2,SPI_CR2_RXDMAEN);
 695:Drivers/STM32F4xx_HAL_Driver/Src/stm32f4xx_hal_i2s_ex.c **** 
 696:Drivers/STM32F4xx_HAL_Driver/Src/stm32f4xx_hal_i2s_ex.c ****       /* Enable the Tx DMA Stream */
 697:Drivers/STM32F4xx_HAL_Driver/Src/stm32f4xx_hal_i2s_ex.c ****       tmp = (uint32_t*)&pTxData;
 698:Drivers/STM32F4xx_HAL_Driver/Src/stm32f4xx_hal_i2s_ex.c ****       HAL_DMA_Start_IT(hi2s->hdmatx, *(uint32_t*)tmp, (uint32_t)&hi2s->Instance->DR, hi2s->TxXferSi
 699:Drivers/STM32F4xx_HAL_Driver/Src/stm32f4xx_hal_i2s_ex.c **** 
 700:Drivers/STM32F4xx_HAL_Driver/Src/stm32f4xx_hal_i2s_ex.c ****       /* Enable Tx DMA Request */
 701:Drivers/STM32F4xx_HAL_Driver/Src/stm32f4xx_hal_i2s_ex.c ****       SET_BIT(hi2s->Instance->CR2,SPI_CR2_TXDMAEN);
 702:Drivers/STM32F4xx_HAL_Driver/Src/stm32f4xx_hal_i2s_ex.c **** 
 703:Drivers/STM32F4xx_HAL_Driver/Src/stm32f4xx_hal_i2s_ex.c ****       /* Check if the I2S is already enabled */
 704:Drivers/STM32F4xx_HAL_Driver/Src/stm32f4xx_hal_i2s_ex.c ****       if((hi2s->Instance->I2SCFGR &SPI_I2SCFGR_I2SE) != SPI_I2SCFGR_I2SE)
 705:Drivers/STM32F4xx_HAL_Driver/Src/stm32f4xx_hal_i2s_ex.c ****       {
 706:Drivers/STM32F4xx_HAL_Driver/Src/stm32f4xx_hal_i2s_ex.c ****         /* Enable I2Sext(receiver) before enabling I2Sx peripheral */
 707:Drivers/STM32F4xx_HAL_Driver/Src/stm32f4xx_hal_i2s_ex.c ****         __HAL_I2SEXT_ENABLE(hi2s);
 708:Drivers/STM32F4xx_HAL_Driver/Src/stm32f4xx_hal_i2s_ex.c **** 
 709:Drivers/STM32F4xx_HAL_Driver/Src/stm32f4xx_hal_i2s_ex.c ****         /* Enable I2S peripheral after the I2Sext */
 710:Drivers/STM32F4xx_HAL_Driver/Src/stm32f4xx_hal_i2s_ex.c ****         __HAL_I2S_ENABLE(hi2s);
 711:Drivers/STM32F4xx_HAL_Driver/Src/stm32f4xx_hal_i2s_ex.c ****       }
 712:Drivers/STM32F4xx_HAL_Driver/Src/stm32f4xx_hal_i2s_ex.c ****     }
 713:Drivers/STM32F4xx_HAL_Driver/Src/stm32f4xx_hal_i2s_ex.c ****     else
 714:Drivers/STM32F4xx_HAL_Driver/Src/stm32f4xx_hal_i2s_ex.c ****     {
 715:Drivers/STM32F4xx_HAL_Driver/Src/stm32f4xx_hal_i2s_ex.c ****       /* Check if Master Receiver mode is selected */
 716:Drivers/STM32F4xx_HAL_Driver/Src/stm32f4xx_hal_i2s_ex.c ****       if((hi2s->Instance->I2SCFGR & SPI_I2SCFGR_I2SCFG) == I2S_MODE_MASTER_RX)
ARM GAS  /tmp/ccVZ1tTs.s 			page 14


 717:Drivers/STM32F4xx_HAL_Driver/Src/stm32f4xx_hal_i2s_ex.c ****       {
 718:Drivers/STM32F4xx_HAL_Driver/Src/stm32f4xx_hal_i2s_ex.c ****         /* Clear the Overrun Flag by a read operation on the SPI_DR register followed by a read
 719:Drivers/STM32F4xx_HAL_Driver/Src/stm32f4xx_hal_i2s_ex.c ****         access to the SPI_SR register. */
 720:Drivers/STM32F4xx_HAL_Driver/Src/stm32f4xx_hal_i2s_ex.c ****         __HAL_I2S_CLEAR_OVRFLAG(hi2s);
 721:Drivers/STM32F4xx_HAL_Driver/Src/stm32f4xx_hal_i2s_ex.c ****       }
 722:Drivers/STM32F4xx_HAL_Driver/Src/stm32f4xx_hal_i2s_ex.c ****       /* Enable the Tx DMA Stream */
 723:Drivers/STM32F4xx_HAL_Driver/Src/stm32f4xx_hal_i2s_ex.c ****       tmp = (uint32_t*)&pTxData;
 724:Drivers/STM32F4xx_HAL_Driver/Src/stm32f4xx_hal_i2s_ex.c ****       HAL_DMA_Start_IT(hi2s->hdmatx, *(uint32_t*)tmp, (uint32_t)&I2SxEXT(hi2s->Instance)->DR, hi2s-
 725:Drivers/STM32F4xx_HAL_Driver/Src/stm32f4xx_hal_i2s_ex.c **** 
 726:Drivers/STM32F4xx_HAL_Driver/Src/stm32f4xx_hal_i2s_ex.c ****       /* Enable Tx DMA Request */
 727:Drivers/STM32F4xx_HAL_Driver/Src/stm32f4xx_hal_i2s_ex.c ****       SET_BIT(I2SxEXT(hi2s->Instance)->CR2,SPI_CR2_TXDMAEN);
 728:Drivers/STM32F4xx_HAL_Driver/Src/stm32f4xx_hal_i2s_ex.c **** 
 729:Drivers/STM32F4xx_HAL_Driver/Src/stm32f4xx_hal_i2s_ex.c ****       /* Enable the Rx DMA Stream */
 730:Drivers/STM32F4xx_HAL_Driver/Src/stm32f4xx_hal_i2s_ex.c ****       tmp = (uint32_t*)&pRxData;
 731:Drivers/STM32F4xx_HAL_Driver/Src/stm32f4xx_hal_i2s_ex.c ****       HAL_DMA_Start_IT(hi2s->hdmarx, (uint32_t)&hi2s->Instance->DR, *(uint32_t*)tmp, hi2s->RxXferSi
 732:Drivers/STM32F4xx_HAL_Driver/Src/stm32f4xx_hal_i2s_ex.c **** 
 733:Drivers/STM32F4xx_HAL_Driver/Src/stm32f4xx_hal_i2s_ex.c ****       /* Enable Rx DMA Request */
 734:Drivers/STM32F4xx_HAL_Driver/Src/stm32f4xx_hal_i2s_ex.c ****       SET_BIT(hi2s->Instance->CR2,SPI_CR2_RXDMAEN);
 735:Drivers/STM32F4xx_HAL_Driver/Src/stm32f4xx_hal_i2s_ex.c **** 
 736:Drivers/STM32F4xx_HAL_Driver/Src/stm32f4xx_hal_i2s_ex.c ****       /* Check if the I2S is already enabled */
 737:Drivers/STM32F4xx_HAL_Driver/Src/stm32f4xx_hal_i2s_ex.c ****       if((hi2s->Instance->I2SCFGR &SPI_I2SCFGR_I2SE) != SPI_I2SCFGR_I2SE)
 738:Drivers/STM32F4xx_HAL_Driver/Src/stm32f4xx_hal_i2s_ex.c ****       {
 739:Drivers/STM32F4xx_HAL_Driver/Src/stm32f4xx_hal_i2s_ex.c ****         /* Enable I2Sext(transmitter) before enabling I2Sx peripheral */
 740:Drivers/STM32F4xx_HAL_Driver/Src/stm32f4xx_hal_i2s_ex.c ****         __HAL_I2SEXT_ENABLE(hi2s);
 741:Drivers/STM32F4xx_HAL_Driver/Src/stm32f4xx_hal_i2s_ex.c ****         /* Enable I2S peripheral before the I2Sext */
 742:Drivers/STM32F4xx_HAL_Driver/Src/stm32f4xx_hal_i2s_ex.c ****         __HAL_I2S_ENABLE(hi2s);
 743:Drivers/STM32F4xx_HAL_Driver/Src/stm32f4xx_hal_i2s_ex.c ****       }
 744:Drivers/STM32F4xx_HAL_Driver/Src/stm32f4xx_hal_i2s_ex.c ****     }
 745:Drivers/STM32F4xx_HAL_Driver/Src/stm32f4xx_hal_i2s_ex.c **** 
 746:Drivers/STM32F4xx_HAL_Driver/Src/stm32f4xx_hal_i2s_ex.c ****     /* Process Unlocked */
 747:Drivers/STM32F4xx_HAL_Driver/Src/stm32f4xx_hal_i2s_ex.c ****     __HAL_UNLOCK(hi2s);
 748:Drivers/STM32F4xx_HAL_Driver/Src/stm32f4xx_hal_i2s_ex.c **** 
 749:Drivers/STM32F4xx_HAL_Driver/Src/stm32f4xx_hal_i2s_ex.c ****     return HAL_OK;
 750:Drivers/STM32F4xx_HAL_Driver/Src/stm32f4xx_hal_i2s_ex.c ****   }
 751:Drivers/STM32F4xx_HAL_Driver/Src/stm32f4xx_hal_i2s_ex.c ****   else
 752:Drivers/STM32F4xx_HAL_Driver/Src/stm32f4xx_hal_i2s_ex.c ****   {
 753:Drivers/STM32F4xx_HAL_Driver/Src/stm32f4xx_hal_i2s_ex.c ****     return HAL_BUSY;
 754:Drivers/STM32F4xx_HAL_Driver/Src/stm32f4xx_hal_i2s_ex.c ****   }
 755:Drivers/STM32F4xx_HAL_Driver/Src/stm32f4xx_hal_i2s_ex.c **** }
 756:Drivers/STM32F4xx_HAL_Driver/Src/stm32f4xx_hal_i2s_ex.c **** 
 757:Drivers/STM32F4xx_HAL_Driver/Src/stm32f4xx_hal_i2s_ex.c **** /**
 758:Drivers/STM32F4xx_HAL_Driver/Src/stm32f4xx_hal_i2s_ex.c ****   * @brief  This function handles I2S/I2Sext interrupt requests in full-duplex mode.
 759:Drivers/STM32F4xx_HAL_Driver/Src/stm32f4xx_hal_i2s_ex.c ****   * @param  hi2s I2S handle
 760:Drivers/STM32F4xx_HAL_Driver/Src/stm32f4xx_hal_i2s_ex.c ****   * @retval HAL status
 761:Drivers/STM32F4xx_HAL_Driver/Src/stm32f4xx_hal_i2s_ex.c ****   */
 762:Drivers/STM32F4xx_HAL_Driver/Src/stm32f4xx_hal_i2s_ex.c **** void HAL_I2SEx_FullDuplex_IRQHandler(I2S_HandleTypeDef *hi2s)
 763:Drivers/STM32F4xx_HAL_Driver/Src/stm32f4xx_hal_i2s_ex.c **** {
 764:Drivers/STM32F4xx_HAL_Driver/Src/stm32f4xx_hal_i2s_ex.c ****   __IO uint32_t i2ssr    = hi2s->Instance->SR ;
 765:Drivers/STM32F4xx_HAL_Driver/Src/stm32f4xx_hal_i2s_ex.c ****   __IO uint32_t i2sextsr = I2SxEXT(hi2s->Instance)->SR;
 766:Drivers/STM32F4xx_HAL_Driver/Src/stm32f4xx_hal_i2s_ex.c **** 
 767:Drivers/STM32F4xx_HAL_Driver/Src/stm32f4xx_hal_i2s_ex.c ****   /* Check if the I2S_MODE_MASTER_TX or I2S_MODE_SLAVE_TX Mode is selected */
 768:Drivers/STM32F4xx_HAL_Driver/Src/stm32f4xx_hal_i2s_ex.c ****   if (((hi2s->Instance->I2SCFGR & SPI_I2SCFGR_I2SCFG) == I2S_MODE_MASTER_TX)
 769:Drivers/STM32F4xx_HAL_Driver/Src/stm32f4xx_hal_i2s_ex.c ****       || ((hi2s->Instance->I2SCFGR & SPI_I2SCFGR_I2SCFG) == I2S_MODE_SLAVE_TX))
 770:Drivers/STM32F4xx_HAL_Driver/Src/stm32f4xx_hal_i2s_ex.c ****   {
 771:Drivers/STM32F4xx_HAL_Driver/Src/stm32f4xx_hal_i2s_ex.c ****     /* I2S in mode Transmitter -------------------------------------------------*/
 772:Drivers/STM32F4xx_HAL_Driver/Src/stm32f4xx_hal_i2s_ex.c ****     if(((i2ssr & I2S_FLAG_TXE) == I2S_FLAG_TXE) && (__HAL_I2S_GET_IT_SOURCE(hi2s, I2S_IT_TXE) != RE
 773:Drivers/STM32F4xx_HAL_Driver/Src/stm32f4xx_hal_i2s_ex.c ****     {
ARM GAS  /tmp/ccVZ1tTs.s 			page 15


 774:Drivers/STM32F4xx_HAL_Driver/Src/stm32f4xx_hal_i2s_ex.c ****       /* When the I2S mode is configured as I2S_MODE_MASTER_TX or I2S_MODE_SLAVE_TX,
 775:Drivers/STM32F4xx_HAL_Driver/Src/stm32f4xx_hal_i2s_ex.c ****       the I2S TXE interrupt will be generated to manage the full-duplex transmit phase. */
 776:Drivers/STM32F4xx_HAL_Driver/Src/stm32f4xx_hal_i2s_ex.c ****       I2SEx_FullDuplexTx_IT(hi2s, I2S_USE_I2S);
 777:Drivers/STM32F4xx_HAL_Driver/Src/stm32f4xx_hal_i2s_ex.c ****     }
 778:Drivers/STM32F4xx_HAL_Driver/Src/stm32f4xx_hal_i2s_ex.c **** 
 779:Drivers/STM32F4xx_HAL_Driver/Src/stm32f4xx_hal_i2s_ex.c ****     /* I2Sext in mode Receiver -----------------------------------------------*/
 780:Drivers/STM32F4xx_HAL_Driver/Src/stm32f4xx_hal_i2s_ex.c ****     if(((i2sextsr & I2S_FLAG_RXNE) == I2S_FLAG_RXNE) && (__HAL_I2SEXT_GET_IT_SOURCE(hi2s, I2S_IT_RX
 781:Drivers/STM32F4xx_HAL_Driver/Src/stm32f4xx_hal_i2s_ex.c ****     {
 782:Drivers/STM32F4xx_HAL_Driver/Src/stm32f4xx_hal_i2s_ex.c ****       /* When the I2S mode is configured as I2S_MODE_MASTER_TX or I2S_MODE_SLAVE_TX,
 783:Drivers/STM32F4xx_HAL_Driver/Src/stm32f4xx_hal_i2s_ex.c ****       the I2Sext RXNE interrupt will be generated to manage the full-duplex receive phase. */
 784:Drivers/STM32F4xx_HAL_Driver/Src/stm32f4xx_hal_i2s_ex.c ****       I2SEx_FullDuplexRx_IT(hi2s, I2S_USE_I2SEXT);
 785:Drivers/STM32F4xx_HAL_Driver/Src/stm32f4xx_hal_i2s_ex.c ****     }
 786:Drivers/STM32F4xx_HAL_Driver/Src/stm32f4xx_hal_i2s_ex.c **** 
 787:Drivers/STM32F4xx_HAL_Driver/Src/stm32f4xx_hal_i2s_ex.c ****     /* I2Sext Overrun error interrupt occured --------------------------------*/
 788:Drivers/STM32F4xx_HAL_Driver/Src/stm32f4xx_hal_i2s_ex.c ****     if(((i2sextsr & I2S_FLAG_OVR) == I2S_FLAG_OVR) && (__HAL_I2SEXT_GET_IT_SOURCE(hi2s, I2S_IT_ERR)
 789:Drivers/STM32F4xx_HAL_Driver/Src/stm32f4xx_hal_i2s_ex.c ****     {
 790:Drivers/STM32F4xx_HAL_Driver/Src/stm32f4xx_hal_i2s_ex.c ****       /* Disable RXNE and ERR interrupt */
 791:Drivers/STM32F4xx_HAL_Driver/Src/stm32f4xx_hal_i2s_ex.c ****       __HAL_I2SEXT_DISABLE_IT(hi2s, (I2S_IT_RXNE | I2S_IT_ERR));
 792:Drivers/STM32F4xx_HAL_Driver/Src/stm32f4xx_hal_i2s_ex.c **** 
 793:Drivers/STM32F4xx_HAL_Driver/Src/stm32f4xx_hal_i2s_ex.c ****       /* Disable TXE and ERR interrupt */
 794:Drivers/STM32F4xx_HAL_Driver/Src/stm32f4xx_hal_i2s_ex.c ****       __HAL_I2S_DISABLE_IT(hi2s, (I2S_IT_TXE | I2S_IT_ERR));
 795:Drivers/STM32F4xx_HAL_Driver/Src/stm32f4xx_hal_i2s_ex.c **** 
 796:Drivers/STM32F4xx_HAL_Driver/Src/stm32f4xx_hal_i2s_ex.c ****       /* Clear Overrun flag */
 797:Drivers/STM32F4xx_HAL_Driver/Src/stm32f4xx_hal_i2s_ex.c ****       __HAL_I2S_CLEAR_OVRFLAG(hi2s);
 798:Drivers/STM32F4xx_HAL_Driver/Src/stm32f4xx_hal_i2s_ex.c **** 
 799:Drivers/STM32F4xx_HAL_Driver/Src/stm32f4xx_hal_i2s_ex.c ****       /* Set the I2S State ready */
 800:Drivers/STM32F4xx_HAL_Driver/Src/stm32f4xx_hal_i2s_ex.c ****       hi2s->State = HAL_I2S_STATE_READY;
 801:Drivers/STM32F4xx_HAL_Driver/Src/stm32f4xx_hal_i2s_ex.c **** 
 802:Drivers/STM32F4xx_HAL_Driver/Src/stm32f4xx_hal_i2s_ex.c ****       /* Set the error code and execute error callback*/
 803:Drivers/STM32F4xx_HAL_Driver/Src/stm32f4xx_hal_i2s_ex.c ****       SET_BIT(hi2s->ErrorCode,HAL_I2S_ERROR_OVR);
 804:Drivers/STM32F4xx_HAL_Driver/Src/stm32f4xx_hal_i2s_ex.c ****       HAL_I2S_ErrorCallback(hi2s);
 805:Drivers/STM32F4xx_HAL_Driver/Src/stm32f4xx_hal_i2s_ex.c ****     }
 806:Drivers/STM32F4xx_HAL_Driver/Src/stm32f4xx_hal_i2s_ex.c **** 
 807:Drivers/STM32F4xx_HAL_Driver/Src/stm32f4xx_hal_i2s_ex.c ****     /* I2S Underrun error interrupt occured ----------------------------------*/
 808:Drivers/STM32F4xx_HAL_Driver/Src/stm32f4xx_hal_i2s_ex.c ****     if(((i2ssr & I2S_FLAG_UDR) == I2S_FLAG_UDR) && (__HAL_I2S_GET_IT_SOURCE(hi2s, I2S_IT_ERR) != RE
 809:Drivers/STM32F4xx_HAL_Driver/Src/stm32f4xx_hal_i2s_ex.c ****     {
 810:Drivers/STM32F4xx_HAL_Driver/Src/stm32f4xx_hal_i2s_ex.c ****       /* Disable TXE and ERR interrupt */
 811:Drivers/STM32F4xx_HAL_Driver/Src/stm32f4xx_hal_i2s_ex.c ****       __HAL_I2S_DISABLE_IT(hi2s, (I2S_IT_TXE | I2S_IT_ERR));
 812:Drivers/STM32F4xx_HAL_Driver/Src/stm32f4xx_hal_i2s_ex.c **** 
 813:Drivers/STM32F4xx_HAL_Driver/Src/stm32f4xx_hal_i2s_ex.c ****       /* Disable RXNE and ERR interrupt */
 814:Drivers/STM32F4xx_HAL_Driver/Src/stm32f4xx_hal_i2s_ex.c ****       __HAL_I2SEXT_DISABLE_IT(hi2s, (I2S_IT_RXNE | I2S_IT_ERR));
 815:Drivers/STM32F4xx_HAL_Driver/Src/stm32f4xx_hal_i2s_ex.c **** 
 816:Drivers/STM32F4xx_HAL_Driver/Src/stm32f4xx_hal_i2s_ex.c ****       /* Clear underrun flag */
 817:Drivers/STM32F4xx_HAL_Driver/Src/stm32f4xx_hal_i2s_ex.c ****       __HAL_I2S_CLEAR_UDRFLAG(hi2s);
 818:Drivers/STM32F4xx_HAL_Driver/Src/stm32f4xx_hal_i2s_ex.c **** 
 819:Drivers/STM32F4xx_HAL_Driver/Src/stm32f4xx_hal_i2s_ex.c ****       /* Set the I2S State ready */
 820:Drivers/STM32F4xx_HAL_Driver/Src/stm32f4xx_hal_i2s_ex.c ****       hi2s->State = HAL_I2S_STATE_READY;
 821:Drivers/STM32F4xx_HAL_Driver/Src/stm32f4xx_hal_i2s_ex.c **** 
 822:Drivers/STM32F4xx_HAL_Driver/Src/stm32f4xx_hal_i2s_ex.c ****       /* Set the error code and execute error callback*/
 823:Drivers/STM32F4xx_HAL_Driver/Src/stm32f4xx_hal_i2s_ex.c ****       SET_BIT(hi2s->ErrorCode,HAL_I2S_ERROR_UDR);
 824:Drivers/STM32F4xx_HAL_Driver/Src/stm32f4xx_hal_i2s_ex.c ****       HAL_I2S_ErrorCallback(hi2s);
 825:Drivers/STM32F4xx_HAL_Driver/Src/stm32f4xx_hal_i2s_ex.c ****     }
 826:Drivers/STM32F4xx_HAL_Driver/Src/stm32f4xx_hal_i2s_ex.c ****   }
 827:Drivers/STM32F4xx_HAL_Driver/Src/stm32f4xx_hal_i2s_ex.c ****   /* The I2S_MODE_MASTER_RX or I2S_MODE_SLAVE_RX Mode is selected */
 828:Drivers/STM32F4xx_HAL_Driver/Src/stm32f4xx_hal_i2s_ex.c ****   else
 829:Drivers/STM32F4xx_HAL_Driver/Src/stm32f4xx_hal_i2s_ex.c ****   {
 830:Drivers/STM32F4xx_HAL_Driver/Src/stm32f4xx_hal_i2s_ex.c ****     /* I2Sext in mode Transmitter ----------------------------------------------*/
ARM GAS  /tmp/ccVZ1tTs.s 			page 16


 831:Drivers/STM32F4xx_HAL_Driver/Src/stm32f4xx_hal_i2s_ex.c ****     if(((i2sextsr & I2S_FLAG_TXE) == I2S_FLAG_TXE) && (__HAL_I2SEXT_GET_IT_SOURCE(hi2s, I2S_IT_TXE)
 832:Drivers/STM32F4xx_HAL_Driver/Src/stm32f4xx_hal_i2s_ex.c ****     {
 833:Drivers/STM32F4xx_HAL_Driver/Src/stm32f4xx_hal_i2s_ex.c ****       /* When the I2S mode is configured as I2S_MODE_MASTER_RX or I2S_MODE_SLAVE_RX,
 834:Drivers/STM32F4xx_HAL_Driver/Src/stm32f4xx_hal_i2s_ex.c ****       the I2Sext TXE interrupt will be generated to manage the full-duplex transmit phase. */
 835:Drivers/STM32F4xx_HAL_Driver/Src/stm32f4xx_hal_i2s_ex.c ****       I2SEx_FullDuplexTx_IT(hi2s, I2S_USE_I2SEXT);
 836:Drivers/STM32F4xx_HAL_Driver/Src/stm32f4xx_hal_i2s_ex.c ****     }
 837:Drivers/STM32F4xx_HAL_Driver/Src/stm32f4xx_hal_i2s_ex.c **** 
 838:Drivers/STM32F4xx_HAL_Driver/Src/stm32f4xx_hal_i2s_ex.c ****     /* I2S in mode Receiver --------------------------------------------------*/
 839:Drivers/STM32F4xx_HAL_Driver/Src/stm32f4xx_hal_i2s_ex.c ****     if(((i2ssr & I2S_FLAG_RXNE) == I2S_FLAG_RXNE) && (__HAL_I2S_GET_IT_SOURCE(hi2s, I2S_IT_RXNE) !=
 840:Drivers/STM32F4xx_HAL_Driver/Src/stm32f4xx_hal_i2s_ex.c ****     {
 841:Drivers/STM32F4xx_HAL_Driver/Src/stm32f4xx_hal_i2s_ex.c ****       /* When the I2S mode is configured as I2S_MODE_MASTER_RX or I2S_MODE_SLAVE_RX,
 842:Drivers/STM32F4xx_HAL_Driver/Src/stm32f4xx_hal_i2s_ex.c ****       the I2S RXNE interrupt will be generated to manage the full-duplex receive phase. */
 843:Drivers/STM32F4xx_HAL_Driver/Src/stm32f4xx_hal_i2s_ex.c ****       I2SEx_FullDuplexRx_IT(hi2s, I2S_USE_I2S);
 844:Drivers/STM32F4xx_HAL_Driver/Src/stm32f4xx_hal_i2s_ex.c ****     }
 845:Drivers/STM32F4xx_HAL_Driver/Src/stm32f4xx_hal_i2s_ex.c **** 
 846:Drivers/STM32F4xx_HAL_Driver/Src/stm32f4xx_hal_i2s_ex.c ****     /* I2S Overrun error interrupt occured -------------------------------------*/
 847:Drivers/STM32F4xx_HAL_Driver/Src/stm32f4xx_hal_i2s_ex.c ****     if(((i2ssr & I2S_FLAG_OVR) == I2S_FLAG_OVR) && (__HAL_I2S_GET_IT_SOURCE(hi2s, I2S_IT_ERR) != RE
 848:Drivers/STM32F4xx_HAL_Driver/Src/stm32f4xx_hal_i2s_ex.c ****     {
 849:Drivers/STM32F4xx_HAL_Driver/Src/stm32f4xx_hal_i2s_ex.c ****       /* Disable RXNE and ERR interrupt */
 850:Drivers/STM32F4xx_HAL_Driver/Src/stm32f4xx_hal_i2s_ex.c ****       __HAL_I2S_DISABLE_IT(hi2s, (I2S_IT_RXNE | I2S_IT_ERR));
 851:Drivers/STM32F4xx_HAL_Driver/Src/stm32f4xx_hal_i2s_ex.c **** 
 852:Drivers/STM32F4xx_HAL_Driver/Src/stm32f4xx_hal_i2s_ex.c ****       /* Disable TXE and ERR interrupt */
 853:Drivers/STM32F4xx_HAL_Driver/Src/stm32f4xx_hal_i2s_ex.c ****       __HAL_I2SEXT_DISABLE_IT(hi2s, (I2S_IT_TXE | I2S_IT_ERR));
 854:Drivers/STM32F4xx_HAL_Driver/Src/stm32f4xx_hal_i2s_ex.c **** 
 855:Drivers/STM32F4xx_HAL_Driver/Src/stm32f4xx_hal_i2s_ex.c ****       /* Set the I2S State ready */
 856:Drivers/STM32F4xx_HAL_Driver/Src/stm32f4xx_hal_i2s_ex.c ****       hi2s->State = HAL_I2S_STATE_READY;
 857:Drivers/STM32F4xx_HAL_Driver/Src/stm32f4xx_hal_i2s_ex.c **** 
 858:Drivers/STM32F4xx_HAL_Driver/Src/stm32f4xx_hal_i2s_ex.c ****       /* Set the error code and execute error callback*/
 859:Drivers/STM32F4xx_HAL_Driver/Src/stm32f4xx_hal_i2s_ex.c ****       SET_BIT(hi2s->ErrorCode,HAL_I2S_ERROR_OVR);
 860:Drivers/STM32F4xx_HAL_Driver/Src/stm32f4xx_hal_i2s_ex.c ****       HAL_I2S_ErrorCallback(hi2s);
 861:Drivers/STM32F4xx_HAL_Driver/Src/stm32f4xx_hal_i2s_ex.c ****     }
 862:Drivers/STM32F4xx_HAL_Driver/Src/stm32f4xx_hal_i2s_ex.c **** 
 863:Drivers/STM32F4xx_HAL_Driver/Src/stm32f4xx_hal_i2s_ex.c ****     /* I2Sext Underrun error interrupt occured -------------------------------*/
 864:Drivers/STM32F4xx_HAL_Driver/Src/stm32f4xx_hal_i2s_ex.c ****     if(((i2sextsr & I2S_FLAG_UDR) == I2S_FLAG_UDR) && (__HAL_I2SEXT_GET_IT_SOURCE(hi2s, I2S_IT_ERR)
 865:Drivers/STM32F4xx_HAL_Driver/Src/stm32f4xx_hal_i2s_ex.c ****     {
 866:Drivers/STM32F4xx_HAL_Driver/Src/stm32f4xx_hal_i2s_ex.c ****       /* Disable TXE and ERR interrupt */
 867:Drivers/STM32F4xx_HAL_Driver/Src/stm32f4xx_hal_i2s_ex.c ****       __HAL_I2SEXT_DISABLE_IT(hi2s, (I2S_IT_TXE | I2S_IT_ERR));
 868:Drivers/STM32F4xx_HAL_Driver/Src/stm32f4xx_hal_i2s_ex.c **** 
 869:Drivers/STM32F4xx_HAL_Driver/Src/stm32f4xx_hal_i2s_ex.c ****       /* Disable RXNE and ERR interrupt */
 870:Drivers/STM32F4xx_HAL_Driver/Src/stm32f4xx_hal_i2s_ex.c ****       __HAL_I2S_DISABLE_IT(hi2s, (I2S_IT_RXNE | I2S_IT_ERR));
 871:Drivers/STM32F4xx_HAL_Driver/Src/stm32f4xx_hal_i2s_ex.c **** 
 872:Drivers/STM32F4xx_HAL_Driver/Src/stm32f4xx_hal_i2s_ex.c ****       /* Set the I2S State ready */
 873:Drivers/STM32F4xx_HAL_Driver/Src/stm32f4xx_hal_i2s_ex.c ****       hi2s->State = HAL_I2S_STATE_READY;
 874:Drivers/STM32F4xx_HAL_Driver/Src/stm32f4xx_hal_i2s_ex.c **** 
 875:Drivers/STM32F4xx_HAL_Driver/Src/stm32f4xx_hal_i2s_ex.c ****       /* Set the error code and execute error callback*/
 876:Drivers/STM32F4xx_HAL_Driver/Src/stm32f4xx_hal_i2s_ex.c ****       SET_BIT(hi2s->ErrorCode,HAL_I2S_ERROR_UDR);
 877:Drivers/STM32F4xx_HAL_Driver/Src/stm32f4xx_hal_i2s_ex.c ****       HAL_I2S_ErrorCallback(hi2s);
 878:Drivers/STM32F4xx_HAL_Driver/Src/stm32f4xx_hal_i2s_ex.c ****     }
 879:Drivers/STM32F4xx_HAL_Driver/Src/stm32f4xx_hal_i2s_ex.c ****   }
 880:Drivers/STM32F4xx_HAL_Driver/Src/stm32f4xx_hal_i2s_ex.c **** }
 881:Drivers/STM32F4xx_HAL_Driver/Src/stm32f4xx_hal_i2s_ex.c **** 
 882:Drivers/STM32F4xx_HAL_Driver/Src/stm32f4xx_hal_i2s_ex.c **** /**
 883:Drivers/STM32F4xx_HAL_Driver/Src/stm32f4xx_hal_i2s_ex.c ****   * @brief Tx and Rx Transfer half completed callback
 884:Drivers/STM32F4xx_HAL_Driver/Src/stm32f4xx_hal_i2s_ex.c ****   * @param hi2s I2S handle
 885:Drivers/STM32F4xx_HAL_Driver/Src/stm32f4xx_hal_i2s_ex.c ****   * @retval None
 886:Drivers/STM32F4xx_HAL_Driver/Src/stm32f4xx_hal_i2s_ex.c ****   */
 887:Drivers/STM32F4xx_HAL_Driver/Src/stm32f4xx_hal_i2s_ex.c **** __weak void HAL_I2SEx_TxRxHalfCpltCallback(I2S_HandleTypeDef *hi2s)
ARM GAS  /tmp/ccVZ1tTs.s 			page 17


 888:Drivers/STM32F4xx_HAL_Driver/Src/stm32f4xx_hal_i2s_ex.c **** {
 889:Drivers/STM32F4xx_HAL_Driver/Src/stm32f4xx_hal_i2s_ex.c ****   /* Prevent unused argument(s) compilation warning */
 890:Drivers/STM32F4xx_HAL_Driver/Src/stm32f4xx_hal_i2s_ex.c ****   UNUSED(hi2s);
 891:Drivers/STM32F4xx_HAL_Driver/Src/stm32f4xx_hal_i2s_ex.c **** 
 892:Drivers/STM32F4xx_HAL_Driver/Src/stm32f4xx_hal_i2s_ex.c ****   /* NOTE : This function Should not be modified, when the callback is needed,
 893:Drivers/STM32F4xx_HAL_Driver/Src/stm32f4xx_hal_i2s_ex.c ****             the HAL_I2SEx_TxRxHalfCpltCallback could be implemented in the user file
 894:Drivers/STM32F4xx_HAL_Driver/Src/stm32f4xx_hal_i2s_ex.c ****    */
 895:Drivers/STM32F4xx_HAL_Driver/Src/stm32f4xx_hal_i2s_ex.c **** }
 896:Drivers/STM32F4xx_HAL_Driver/Src/stm32f4xx_hal_i2s_ex.c **** 
 897:Drivers/STM32F4xx_HAL_Driver/Src/stm32f4xx_hal_i2s_ex.c **** /**
 898:Drivers/STM32F4xx_HAL_Driver/Src/stm32f4xx_hal_i2s_ex.c ****   * @brief Tx and Rx Transfer completed callback
 899:Drivers/STM32F4xx_HAL_Driver/Src/stm32f4xx_hal_i2s_ex.c ****   * @param hi2s I2S handle
 900:Drivers/STM32F4xx_HAL_Driver/Src/stm32f4xx_hal_i2s_ex.c ****   * @retval None
 901:Drivers/STM32F4xx_HAL_Driver/Src/stm32f4xx_hal_i2s_ex.c ****   */
 902:Drivers/STM32F4xx_HAL_Driver/Src/stm32f4xx_hal_i2s_ex.c **** __weak void HAL_I2SEx_TxRxCpltCallback(I2S_HandleTypeDef *hi2s)
 903:Drivers/STM32F4xx_HAL_Driver/Src/stm32f4xx_hal_i2s_ex.c **** {
 904:Drivers/STM32F4xx_HAL_Driver/Src/stm32f4xx_hal_i2s_ex.c ****   /* Prevent unused argument(s) compilation warning */
 905:Drivers/STM32F4xx_HAL_Driver/Src/stm32f4xx_hal_i2s_ex.c ****   UNUSED(hi2s);
 906:Drivers/STM32F4xx_HAL_Driver/Src/stm32f4xx_hal_i2s_ex.c **** 
 907:Drivers/STM32F4xx_HAL_Driver/Src/stm32f4xx_hal_i2s_ex.c ****   /* NOTE : This function Should not be modified, when the callback is needed,
 908:Drivers/STM32F4xx_HAL_Driver/Src/stm32f4xx_hal_i2s_ex.c ****             the HAL_I2SEx_TxRxCpltCallback could be implemented in the user file
 909:Drivers/STM32F4xx_HAL_Driver/Src/stm32f4xx_hal_i2s_ex.c ****    */
 910:Drivers/STM32F4xx_HAL_Driver/Src/stm32f4xx_hal_i2s_ex.c **** }
 911:Drivers/STM32F4xx_HAL_Driver/Src/stm32f4xx_hal_i2s_ex.c **** 
 912:Drivers/STM32F4xx_HAL_Driver/Src/stm32f4xx_hal_i2s_ex.c **** /**
 913:Drivers/STM32F4xx_HAL_Driver/Src/stm32f4xx_hal_i2s_ex.c ****   * @}
 914:Drivers/STM32F4xx_HAL_Driver/Src/stm32f4xx_hal_i2s_ex.c ****   */
 915:Drivers/STM32F4xx_HAL_Driver/Src/stm32f4xx_hal_i2s_ex.c **** 
 916:Drivers/STM32F4xx_HAL_Driver/Src/stm32f4xx_hal_i2s_ex.c **** /**
 917:Drivers/STM32F4xx_HAL_Driver/Src/stm32f4xx_hal_i2s_ex.c ****   * @}
 918:Drivers/STM32F4xx_HAL_Driver/Src/stm32f4xx_hal_i2s_ex.c ****   */
 919:Drivers/STM32F4xx_HAL_Driver/Src/stm32f4xx_hal_i2s_ex.c **** 
 920:Drivers/STM32F4xx_HAL_Driver/Src/stm32f4xx_hal_i2s_ex.c **** /** @addtogroup I2SEx_Private_Functions I2S Extended Private Functions
 921:Drivers/STM32F4xx_HAL_Driver/Src/stm32f4xx_hal_i2s_ex.c ****   * @{
 922:Drivers/STM32F4xx_HAL_Driver/Src/stm32f4xx_hal_i2s_ex.c ****   */
 923:Drivers/STM32F4xx_HAL_Driver/Src/stm32f4xx_hal_i2s_ex.c **** 
 924:Drivers/STM32F4xx_HAL_Driver/Src/stm32f4xx_hal_i2s_ex.c **** /**
 925:Drivers/STM32F4xx_HAL_Driver/Src/stm32f4xx_hal_i2s_ex.c ****   * @brief DMA I2S transmit receive process half complete callback
 926:Drivers/STM32F4xx_HAL_Driver/Src/stm32f4xx_hal_i2s_ex.c ****   * @param  hdma pointer to a DMA_HandleTypeDef structure that contains
 927:Drivers/STM32F4xx_HAL_Driver/Src/stm32f4xx_hal_i2s_ex.c ****   *               the configuration information for the specified DMA module.
 928:Drivers/STM32F4xx_HAL_Driver/Src/stm32f4xx_hal_i2s_ex.c ****   * @retval None
 929:Drivers/STM32F4xx_HAL_Driver/Src/stm32f4xx_hal_i2s_ex.c ****   */
 930:Drivers/STM32F4xx_HAL_Driver/Src/stm32f4xx_hal_i2s_ex.c **** static void I2SEx_TxRxDMAHalfCplt(DMA_HandleTypeDef *hdma)
 931:Drivers/STM32F4xx_HAL_Driver/Src/stm32f4xx_hal_i2s_ex.c **** {
 932:Drivers/STM32F4xx_HAL_Driver/Src/stm32f4xx_hal_i2s_ex.c ****   I2S_HandleTypeDef* hi2s = (I2S_HandleTypeDef*)((DMA_HandleTypeDef*)hdma)->Parent;
 933:Drivers/STM32F4xx_HAL_Driver/Src/stm32f4xx_hal_i2s_ex.c **** 
 934:Drivers/STM32F4xx_HAL_Driver/Src/stm32f4xx_hal_i2s_ex.c ****    HAL_I2SEx_TxRxHalfCpltCallback(hi2s);
 935:Drivers/STM32F4xx_HAL_Driver/Src/stm32f4xx_hal_i2s_ex.c **** }
 936:Drivers/STM32F4xx_HAL_Driver/Src/stm32f4xx_hal_i2s_ex.c **** 
 937:Drivers/STM32F4xx_HAL_Driver/Src/stm32f4xx_hal_i2s_ex.c **** /**
 938:Drivers/STM32F4xx_HAL_Driver/Src/stm32f4xx_hal_i2s_ex.c ****   * @brief DMA I2S transmit receive process complete callback
 939:Drivers/STM32F4xx_HAL_Driver/Src/stm32f4xx_hal_i2s_ex.c ****   * @param  hdma pointer to a DMA_HandleTypeDef structure that contains
 940:Drivers/STM32F4xx_HAL_Driver/Src/stm32f4xx_hal_i2s_ex.c ****   *               the configuration information for the specified DMA module.
 941:Drivers/STM32F4xx_HAL_Driver/Src/stm32f4xx_hal_i2s_ex.c ****   * @retval None
 942:Drivers/STM32F4xx_HAL_Driver/Src/stm32f4xx_hal_i2s_ex.c ****   */
 943:Drivers/STM32F4xx_HAL_Driver/Src/stm32f4xx_hal_i2s_ex.c **** static void I2SEx_TxRxDMACplt(DMA_HandleTypeDef *hdma)
 944:Drivers/STM32F4xx_HAL_Driver/Src/stm32f4xx_hal_i2s_ex.c **** {
ARM GAS  /tmp/ccVZ1tTs.s 			page 18


 945:Drivers/STM32F4xx_HAL_Driver/Src/stm32f4xx_hal_i2s_ex.c ****   I2S_HandleTypeDef* hi2s = (I2S_HandleTypeDef*)((DMA_HandleTypeDef*)hdma)->Parent;
 946:Drivers/STM32F4xx_HAL_Driver/Src/stm32f4xx_hal_i2s_ex.c **** 
 947:Drivers/STM32F4xx_HAL_Driver/Src/stm32f4xx_hal_i2s_ex.c ****   /* if DMA is not configured in DMA_CIRCULAR mode */
 948:Drivers/STM32F4xx_HAL_Driver/Src/stm32f4xx_hal_i2s_ex.c ****   if((hdma->Instance->CR & DMA_SxCR_CIRC) == 0U)
 949:Drivers/STM32F4xx_HAL_Driver/Src/stm32f4xx_hal_i2s_ex.c ****   {
 950:Drivers/STM32F4xx_HAL_Driver/Src/stm32f4xx_hal_i2s_ex.c ****     if (hi2s->hdmarx == hdma)
 951:Drivers/STM32F4xx_HAL_Driver/Src/stm32f4xx_hal_i2s_ex.c ****     {
 952:Drivers/STM32F4xx_HAL_Driver/Src/stm32f4xx_hal_i2s_ex.c ****       /* Disable Rx DMA Request */
 953:Drivers/STM32F4xx_HAL_Driver/Src/stm32f4xx_hal_i2s_ex.c ****       if (((hi2s->Instance->I2SCFGR & SPI_I2SCFGR_I2SCFG) == I2S_MODE_MASTER_TX) ||\
 954:Drivers/STM32F4xx_HAL_Driver/Src/stm32f4xx_hal_i2s_ex.c ****           ((hi2s->Instance->I2SCFGR & SPI_I2SCFGR_I2SCFG) == I2S_MODE_SLAVE_TX))
 955:Drivers/STM32F4xx_HAL_Driver/Src/stm32f4xx_hal_i2s_ex.c ****       {
 956:Drivers/STM32F4xx_HAL_Driver/Src/stm32f4xx_hal_i2s_ex.c ****         CLEAR_BIT(I2SxEXT(hi2s->Instance)->CR2,SPI_CR2_RXDMAEN);
 957:Drivers/STM32F4xx_HAL_Driver/Src/stm32f4xx_hal_i2s_ex.c ****       }
 958:Drivers/STM32F4xx_HAL_Driver/Src/stm32f4xx_hal_i2s_ex.c ****       else
 959:Drivers/STM32F4xx_HAL_Driver/Src/stm32f4xx_hal_i2s_ex.c ****       {
 960:Drivers/STM32F4xx_HAL_Driver/Src/stm32f4xx_hal_i2s_ex.c ****         CLEAR_BIT(hi2s->Instance->CR2,SPI_CR2_RXDMAEN);
 961:Drivers/STM32F4xx_HAL_Driver/Src/stm32f4xx_hal_i2s_ex.c ****       }
 962:Drivers/STM32F4xx_HAL_Driver/Src/stm32f4xx_hal_i2s_ex.c **** 
 963:Drivers/STM32F4xx_HAL_Driver/Src/stm32f4xx_hal_i2s_ex.c ****       hi2s->RxXferCount = 0U;
 964:Drivers/STM32F4xx_HAL_Driver/Src/stm32f4xx_hal_i2s_ex.c **** 
 965:Drivers/STM32F4xx_HAL_Driver/Src/stm32f4xx_hal_i2s_ex.c ****       if (hi2s->TxXferCount == 0U)
 966:Drivers/STM32F4xx_HAL_Driver/Src/stm32f4xx_hal_i2s_ex.c ****       {
 967:Drivers/STM32F4xx_HAL_Driver/Src/stm32f4xx_hal_i2s_ex.c ****         hi2s->State = HAL_I2S_STATE_READY;
 968:Drivers/STM32F4xx_HAL_Driver/Src/stm32f4xx_hal_i2s_ex.c **** 
 969:Drivers/STM32F4xx_HAL_Driver/Src/stm32f4xx_hal_i2s_ex.c ****         HAL_I2SEx_TxRxCpltCallback(hi2s);
 970:Drivers/STM32F4xx_HAL_Driver/Src/stm32f4xx_hal_i2s_ex.c ****       }
 971:Drivers/STM32F4xx_HAL_Driver/Src/stm32f4xx_hal_i2s_ex.c ****     }
 972:Drivers/STM32F4xx_HAL_Driver/Src/stm32f4xx_hal_i2s_ex.c **** 
 973:Drivers/STM32F4xx_HAL_Driver/Src/stm32f4xx_hal_i2s_ex.c ****     if (hi2s->hdmatx == hdma)
 974:Drivers/STM32F4xx_HAL_Driver/Src/stm32f4xx_hal_i2s_ex.c ****     {
 975:Drivers/STM32F4xx_HAL_Driver/Src/stm32f4xx_hal_i2s_ex.c ****       /* Disable Tx DMA Request */
 976:Drivers/STM32F4xx_HAL_Driver/Src/stm32f4xx_hal_i2s_ex.c ****       if (((hi2s->Instance->I2SCFGR & SPI_I2SCFGR_I2SCFG) == I2S_MODE_MASTER_TX) ||\
 977:Drivers/STM32F4xx_HAL_Driver/Src/stm32f4xx_hal_i2s_ex.c ****           ((hi2s->Instance->I2SCFGR & SPI_I2SCFGR_I2SCFG) == I2S_MODE_SLAVE_TX))
 978:Drivers/STM32F4xx_HAL_Driver/Src/stm32f4xx_hal_i2s_ex.c ****       {
 979:Drivers/STM32F4xx_HAL_Driver/Src/stm32f4xx_hal_i2s_ex.c ****         CLEAR_BIT(hi2s->Instance->CR2,SPI_CR2_TXDMAEN);
 980:Drivers/STM32F4xx_HAL_Driver/Src/stm32f4xx_hal_i2s_ex.c ****       }
 981:Drivers/STM32F4xx_HAL_Driver/Src/stm32f4xx_hal_i2s_ex.c ****       else
 982:Drivers/STM32F4xx_HAL_Driver/Src/stm32f4xx_hal_i2s_ex.c ****       {
 983:Drivers/STM32F4xx_HAL_Driver/Src/stm32f4xx_hal_i2s_ex.c ****         CLEAR_BIT(I2SxEXT(hi2s->Instance)->CR2,SPI_CR2_TXDMAEN);
 984:Drivers/STM32F4xx_HAL_Driver/Src/stm32f4xx_hal_i2s_ex.c ****       }
 985:Drivers/STM32F4xx_HAL_Driver/Src/stm32f4xx_hal_i2s_ex.c **** 
 986:Drivers/STM32F4xx_HAL_Driver/Src/stm32f4xx_hal_i2s_ex.c ****       hi2s->TxXferCount = 0U;
 987:Drivers/STM32F4xx_HAL_Driver/Src/stm32f4xx_hal_i2s_ex.c **** 
 988:Drivers/STM32F4xx_HAL_Driver/Src/stm32f4xx_hal_i2s_ex.c ****       if (hi2s->RxXferCount == 0U)
 989:Drivers/STM32F4xx_HAL_Driver/Src/stm32f4xx_hal_i2s_ex.c ****       {
 990:Drivers/STM32F4xx_HAL_Driver/Src/stm32f4xx_hal_i2s_ex.c ****         hi2s->State = HAL_I2S_STATE_READY;
 991:Drivers/STM32F4xx_HAL_Driver/Src/stm32f4xx_hal_i2s_ex.c **** 
 992:Drivers/STM32F4xx_HAL_Driver/Src/stm32f4xx_hal_i2s_ex.c ****         HAL_I2SEx_TxRxCpltCallback(hi2s);
 993:Drivers/STM32F4xx_HAL_Driver/Src/stm32f4xx_hal_i2s_ex.c ****       }
 994:Drivers/STM32F4xx_HAL_Driver/Src/stm32f4xx_hal_i2s_ex.c ****     }
 995:Drivers/STM32F4xx_HAL_Driver/Src/stm32f4xx_hal_i2s_ex.c ****   }
 996:Drivers/STM32F4xx_HAL_Driver/Src/stm32f4xx_hal_i2s_ex.c **** }
 997:Drivers/STM32F4xx_HAL_Driver/Src/stm32f4xx_hal_i2s_ex.c **** 
 998:Drivers/STM32F4xx_HAL_Driver/Src/stm32f4xx_hal_i2s_ex.c **** /**
 999:Drivers/STM32F4xx_HAL_Driver/Src/stm32f4xx_hal_i2s_ex.c ****   * @brief DMA I2S communication error callback
1000:Drivers/STM32F4xx_HAL_Driver/Src/stm32f4xx_hal_i2s_ex.c ****   * @param hdma  DMA handle
1001:Drivers/STM32F4xx_HAL_Driver/Src/stm32f4xx_hal_i2s_ex.c ****   * @retval None
ARM GAS  /tmp/ccVZ1tTs.s 			page 19


1002:Drivers/STM32F4xx_HAL_Driver/Src/stm32f4xx_hal_i2s_ex.c ****   */
1003:Drivers/STM32F4xx_HAL_Driver/Src/stm32f4xx_hal_i2s_ex.c **** static void I2SEx_TxRxDMAError(DMA_HandleTypeDef *hdma)
1004:Drivers/STM32F4xx_HAL_Driver/Src/stm32f4xx_hal_i2s_ex.c **** {
  27              		.loc 1 1004 0
  28              		.cfi_startproc
  29              		@ args = 0, pretend = 0, frame = 0
  30              		@ frame_needed = 0, uses_anonymous_args = 0
  31              		@ link register save eliminated.
  32              	.LVL0:
1005:Drivers/STM32F4xx_HAL_Driver/Src/stm32f4xx_hal_i2s_ex.c ****   I2S_HandleTypeDef* hi2s = ( I2S_HandleTypeDef* )((DMA_HandleTypeDef* )hdma)->Parent;
  33              		.loc 1 1005 0
  34 0000 806B     		ldr	r0, [r0, #56]
  35              	.LVL1:
1006:Drivers/STM32F4xx_HAL_Driver/Src/stm32f4xx_hal_i2s_ex.c **** 
1007:Drivers/STM32F4xx_HAL_Driver/Src/stm32f4xx_hal_i2s_ex.c ****   /* Disable Rx and Tx DMA Request */
1008:Drivers/STM32F4xx_HAL_Driver/Src/stm32f4xx_hal_i2s_ex.c ****   CLEAR_BIT(hi2s->Instance->CR2,(SPI_CR2_RXDMAEN | SPI_CR2_TXDMAEN));
1009:Drivers/STM32F4xx_HAL_Driver/Src/stm32f4xx_hal_i2s_ex.c ****   CLEAR_BIT(I2SxEXT(hi2s->Instance)->CR2,(SPI_CR2_RXDMAEN | SPI_CR2_TXDMAEN));
  36              		.loc 1 1009 0
  37 0002 0D49     		ldr	r1, .L4
1008:Drivers/STM32F4xx_HAL_Driver/Src/stm32f4xx_hal_i2s_ex.c ****   CLEAR_BIT(I2SxEXT(hi2s->Instance)->CR2,(SPI_CR2_RXDMAEN | SPI_CR2_TXDMAEN));
  38              		.loc 1 1008 0
  39 0004 0268     		ldr	r2, [r0]
  40 0006 5368     		ldr	r3, [r2, #4]
  41 0008 23F00303 		bic	r3, r3, #3
  42 000c 5360     		str	r3, [r2, #4]
  43              		.loc 1 1009 0
  44 000e 0B4B     		ldr	r3, .L4+4
  45 0010 8A42     		cmp	r2, r1
  46 0012 18BF     		it	ne
  47 0014 4FF04023 		movne	r3, #1073758208
  48 0018 5A68     		ldr	r2, [r3, #4]
  49 001a 22F00302 		bic	r2, r2, #3
  50 001e 5A60     		str	r2, [r3, #4]
1010:Drivers/STM32F4xx_HAL_Driver/Src/stm32f4xx_hal_i2s_ex.c **** 
1011:Drivers/STM32F4xx_HAL_Driver/Src/stm32f4xx_hal_i2s_ex.c ****   hi2s->TxXferCount = 0U;
  51              		.loc 1 1011 0
  52 0020 0023     		movs	r3, #0
  53 0022 4385     		strh	r3, [r0, #42]	@ movhi
1012:Drivers/STM32F4xx_HAL_Driver/Src/stm32f4xx_hal_i2s_ex.c ****   hi2s->RxXferCount = 0U;
  54              		.loc 1 1012 0
  55 0024 4386     		strh	r3, [r0, #50]	@ movhi
1013:Drivers/STM32F4xx_HAL_Driver/Src/stm32f4xx_hal_i2s_ex.c **** 
1014:Drivers/STM32F4xx_HAL_Driver/Src/stm32f4xx_hal_i2s_ex.c ****   hi2s->State= HAL_I2S_STATE_READY;
  56              		.loc 1 1014 0
  57 0026 0123     		movs	r3, #1
  58 0028 80F84130 		strb	r3, [r0, #65]
1015:Drivers/STM32F4xx_HAL_Driver/Src/stm32f4xx_hal_i2s_ex.c **** 
1016:Drivers/STM32F4xx_HAL_Driver/Src/stm32f4xx_hal_i2s_ex.c ****   /* Set the error code and execute error callback*/
1017:Drivers/STM32F4xx_HAL_Driver/Src/stm32f4xx_hal_i2s_ex.c ****   SET_BIT(hi2s->ErrorCode,HAL_I2S_ERROR_DMA);
  59              		.loc 1 1017 0
  60 002c 436C     		ldr	r3, [r0, #68]
  61 002e 43F00803 		orr	r3, r3, #8
  62 0032 4364     		str	r3, [r0, #68]
1018:Drivers/STM32F4xx_HAL_Driver/Src/stm32f4xx_hal_i2s_ex.c ****   HAL_I2S_ErrorCallback(hi2s);
  63              		.loc 1 1018 0
  64 0034 FFF7FEBF 		b	HAL_I2S_ErrorCallback
  65              	.LVL2:
ARM GAS  /tmp/ccVZ1tTs.s 			page 20


  66              	.L5:
  67              		.align	2
  68              	.L4:
  69 0038 00380040 		.word	1073756160
  70 003c 00340040 		.word	1073755136
  71              		.cfi_endproc
  72              	.LFE134:
  74              		.section	.text.I2SEx_FullDuplexWaitFlagStateUntilTimeout.constprop.5,"ax",%progbits
  75              		.align	1
  76              		.syntax unified
  77              		.thumb
  78              		.thumb_func
  79              		.fpu fpv4-sp-d16
  81              	I2SEx_FullDuplexWaitFlagStateUntilTimeout.constprop.5:
  82              	.LFB142:
1019:Drivers/STM32F4xx_HAL_Driver/Src/stm32f4xx_hal_i2s_ex.c **** }
1020:Drivers/STM32F4xx_HAL_Driver/Src/stm32f4xx_hal_i2s_ex.c **** 
1021:Drivers/STM32F4xx_HAL_Driver/Src/stm32f4xx_hal_i2s_ex.c **** /**
1022:Drivers/STM32F4xx_HAL_Driver/Src/stm32f4xx_hal_i2s_ex.c ****   * @brief Full-Duplex IT handler transmit function
1023:Drivers/STM32F4xx_HAL_Driver/Src/stm32f4xx_hal_i2s_ex.c ****   * @param hi2s I2S handle
1024:Drivers/STM32F4xx_HAL_Driver/Src/stm32f4xx_hal_i2s_ex.c ****   * @param i2sUsed indicate if I2Sx or I2Sx_ext is concerned
1025:Drivers/STM32F4xx_HAL_Driver/Src/stm32f4xx_hal_i2s_ex.c ****   * @retval None
1026:Drivers/STM32F4xx_HAL_Driver/Src/stm32f4xx_hal_i2s_ex.c ****   */
1027:Drivers/STM32F4xx_HAL_Driver/Src/stm32f4xx_hal_i2s_ex.c **** static void I2SEx_FullDuplexTx_IT(I2S_HandleTypeDef *hi2s, I2S_UseTypeDef i2sUsed)
1028:Drivers/STM32F4xx_HAL_Driver/Src/stm32f4xx_hal_i2s_ex.c **** {
1029:Drivers/STM32F4xx_HAL_Driver/Src/stm32f4xx_hal_i2s_ex.c ****   if(i2sUsed == I2S_USE_I2S)
1030:Drivers/STM32F4xx_HAL_Driver/Src/stm32f4xx_hal_i2s_ex.c ****   {
1031:Drivers/STM32F4xx_HAL_Driver/Src/stm32f4xx_hal_i2s_ex.c ****     /* Write Data on DR register */
1032:Drivers/STM32F4xx_HAL_Driver/Src/stm32f4xx_hal_i2s_ex.c ****     hi2s->Instance->DR = (*hi2s->pTxBuffPtr++);
1033:Drivers/STM32F4xx_HAL_Driver/Src/stm32f4xx_hal_i2s_ex.c ****     hi2s->TxXferCount--;
1034:Drivers/STM32F4xx_HAL_Driver/Src/stm32f4xx_hal_i2s_ex.c **** 
1035:Drivers/STM32F4xx_HAL_Driver/Src/stm32f4xx_hal_i2s_ex.c ****     if(hi2s->TxXferCount == 0U)
1036:Drivers/STM32F4xx_HAL_Driver/Src/stm32f4xx_hal_i2s_ex.c ****     {
1037:Drivers/STM32F4xx_HAL_Driver/Src/stm32f4xx_hal_i2s_ex.c ****       /* Disable TXE and ERR interrupt */
1038:Drivers/STM32F4xx_HAL_Driver/Src/stm32f4xx_hal_i2s_ex.c ****       __HAL_I2S_DISABLE_IT(hi2s, (I2S_IT_TXE | I2S_IT_ERR));
1039:Drivers/STM32F4xx_HAL_Driver/Src/stm32f4xx_hal_i2s_ex.c **** 
1040:Drivers/STM32F4xx_HAL_Driver/Src/stm32f4xx_hal_i2s_ex.c ****       if(hi2s->RxXferCount == 0U)
1041:Drivers/STM32F4xx_HAL_Driver/Src/stm32f4xx_hal_i2s_ex.c ****       {
1042:Drivers/STM32F4xx_HAL_Driver/Src/stm32f4xx_hal_i2s_ex.c ****         hi2s->State = HAL_I2S_STATE_READY;
1043:Drivers/STM32F4xx_HAL_Driver/Src/stm32f4xx_hal_i2s_ex.c ****         HAL_I2SEx_TxRxCpltCallback(hi2s);
1044:Drivers/STM32F4xx_HAL_Driver/Src/stm32f4xx_hal_i2s_ex.c ****       }
1045:Drivers/STM32F4xx_HAL_Driver/Src/stm32f4xx_hal_i2s_ex.c ****     }
1046:Drivers/STM32F4xx_HAL_Driver/Src/stm32f4xx_hal_i2s_ex.c ****   }
1047:Drivers/STM32F4xx_HAL_Driver/Src/stm32f4xx_hal_i2s_ex.c ****   else
1048:Drivers/STM32F4xx_HAL_Driver/Src/stm32f4xx_hal_i2s_ex.c ****   {
1049:Drivers/STM32F4xx_HAL_Driver/Src/stm32f4xx_hal_i2s_ex.c ****     /* Write Data on DR register */
1050:Drivers/STM32F4xx_HAL_Driver/Src/stm32f4xx_hal_i2s_ex.c ****     I2SxEXT(hi2s->Instance)->DR = (*hi2s->pTxBuffPtr++);
1051:Drivers/STM32F4xx_HAL_Driver/Src/stm32f4xx_hal_i2s_ex.c ****     hi2s->TxXferCount--;
1052:Drivers/STM32F4xx_HAL_Driver/Src/stm32f4xx_hal_i2s_ex.c **** 
1053:Drivers/STM32F4xx_HAL_Driver/Src/stm32f4xx_hal_i2s_ex.c ****     if(hi2s->TxXferCount == 0U)
1054:Drivers/STM32F4xx_HAL_Driver/Src/stm32f4xx_hal_i2s_ex.c ****     {
1055:Drivers/STM32F4xx_HAL_Driver/Src/stm32f4xx_hal_i2s_ex.c ****       /* Disable I2Sext TXE and ERR interrupt */
1056:Drivers/STM32F4xx_HAL_Driver/Src/stm32f4xx_hal_i2s_ex.c ****       __HAL_I2SEXT_DISABLE_IT(hi2s, (I2S_IT_TXE | I2S_IT_ERR));
1057:Drivers/STM32F4xx_HAL_Driver/Src/stm32f4xx_hal_i2s_ex.c **** 
1058:Drivers/STM32F4xx_HAL_Driver/Src/stm32f4xx_hal_i2s_ex.c ****       if(hi2s->RxXferCount == 0U)
1059:Drivers/STM32F4xx_HAL_Driver/Src/stm32f4xx_hal_i2s_ex.c ****       {
1060:Drivers/STM32F4xx_HAL_Driver/Src/stm32f4xx_hal_i2s_ex.c ****         hi2s->State = HAL_I2S_STATE_READY;
ARM GAS  /tmp/ccVZ1tTs.s 			page 21


1061:Drivers/STM32F4xx_HAL_Driver/Src/stm32f4xx_hal_i2s_ex.c ****         HAL_I2SEx_TxRxCpltCallback(hi2s);
1062:Drivers/STM32F4xx_HAL_Driver/Src/stm32f4xx_hal_i2s_ex.c ****       }
1063:Drivers/STM32F4xx_HAL_Driver/Src/stm32f4xx_hal_i2s_ex.c ****     }
1064:Drivers/STM32F4xx_HAL_Driver/Src/stm32f4xx_hal_i2s_ex.c ****   }
1065:Drivers/STM32F4xx_HAL_Driver/Src/stm32f4xx_hal_i2s_ex.c **** }
1066:Drivers/STM32F4xx_HAL_Driver/Src/stm32f4xx_hal_i2s_ex.c **** 
1067:Drivers/STM32F4xx_HAL_Driver/Src/stm32f4xx_hal_i2s_ex.c **** /**
1068:Drivers/STM32F4xx_HAL_Driver/Src/stm32f4xx_hal_i2s_ex.c ****   * @brief Full-Duplex IT handler receive function
1069:Drivers/STM32F4xx_HAL_Driver/Src/stm32f4xx_hal_i2s_ex.c ****   * @param hi2s I2S handle
1070:Drivers/STM32F4xx_HAL_Driver/Src/stm32f4xx_hal_i2s_ex.c ****   * @param i2sUsed indicate if I2Sx or I2Sx_ext is concerned
1071:Drivers/STM32F4xx_HAL_Driver/Src/stm32f4xx_hal_i2s_ex.c ****   * @retval None
1072:Drivers/STM32F4xx_HAL_Driver/Src/stm32f4xx_hal_i2s_ex.c ****   */
1073:Drivers/STM32F4xx_HAL_Driver/Src/stm32f4xx_hal_i2s_ex.c **** static void I2SEx_FullDuplexRx_IT(I2S_HandleTypeDef *hi2s, I2S_UseTypeDef i2sUsed)
1074:Drivers/STM32F4xx_HAL_Driver/Src/stm32f4xx_hal_i2s_ex.c **** {
1075:Drivers/STM32F4xx_HAL_Driver/Src/stm32f4xx_hal_i2s_ex.c ****   if(i2sUsed == I2S_USE_I2S)
1076:Drivers/STM32F4xx_HAL_Driver/Src/stm32f4xx_hal_i2s_ex.c ****   {
1077:Drivers/STM32F4xx_HAL_Driver/Src/stm32f4xx_hal_i2s_ex.c ****     /* Read Data from DR register */
1078:Drivers/STM32F4xx_HAL_Driver/Src/stm32f4xx_hal_i2s_ex.c ****     (*hi2s->pRxBuffPtr++) = hi2s->Instance->DR;
1079:Drivers/STM32F4xx_HAL_Driver/Src/stm32f4xx_hal_i2s_ex.c ****     hi2s->RxXferCount--;
1080:Drivers/STM32F4xx_HAL_Driver/Src/stm32f4xx_hal_i2s_ex.c **** 
1081:Drivers/STM32F4xx_HAL_Driver/Src/stm32f4xx_hal_i2s_ex.c ****     if(hi2s->RxXferCount == 0U)
1082:Drivers/STM32F4xx_HAL_Driver/Src/stm32f4xx_hal_i2s_ex.c ****     {
1083:Drivers/STM32F4xx_HAL_Driver/Src/stm32f4xx_hal_i2s_ex.c ****       /* Disable RXNE and ERR interrupt */
1084:Drivers/STM32F4xx_HAL_Driver/Src/stm32f4xx_hal_i2s_ex.c ****       __HAL_I2S_DISABLE_IT(hi2s, (I2S_IT_RXNE | I2S_IT_ERR));
1085:Drivers/STM32F4xx_HAL_Driver/Src/stm32f4xx_hal_i2s_ex.c **** 
1086:Drivers/STM32F4xx_HAL_Driver/Src/stm32f4xx_hal_i2s_ex.c ****       if(hi2s->TxXferCount == 0U)
1087:Drivers/STM32F4xx_HAL_Driver/Src/stm32f4xx_hal_i2s_ex.c ****       {
1088:Drivers/STM32F4xx_HAL_Driver/Src/stm32f4xx_hal_i2s_ex.c ****         hi2s->State = HAL_I2S_STATE_READY;
1089:Drivers/STM32F4xx_HAL_Driver/Src/stm32f4xx_hal_i2s_ex.c ****         HAL_I2SEx_TxRxCpltCallback(hi2s);
1090:Drivers/STM32F4xx_HAL_Driver/Src/stm32f4xx_hal_i2s_ex.c ****       }
1091:Drivers/STM32F4xx_HAL_Driver/Src/stm32f4xx_hal_i2s_ex.c ****     }
1092:Drivers/STM32F4xx_HAL_Driver/Src/stm32f4xx_hal_i2s_ex.c ****   }
1093:Drivers/STM32F4xx_HAL_Driver/Src/stm32f4xx_hal_i2s_ex.c ****   else
1094:Drivers/STM32F4xx_HAL_Driver/Src/stm32f4xx_hal_i2s_ex.c ****   {
1095:Drivers/STM32F4xx_HAL_Driver/Src/stm32f4xx_hal_i2s_ex.c ****     /* Read Data from DR register */
1096:Drivers/STM32F4xx_HAL_Driver/Src/stm32f4xx_hal_i2s_ex.c ****     (*hi2s->pRxBuffPtr++) = I2SxEXT(hi2s->Instance)->DR;
1097:Drivers/STM32F4xx_HAL_Driver/Src/stm32f4xx_hal_i2s_ex.c ****     hi2s->RxXferCount--;
1098:Drivers/STM32F4xx_HAL_Driver/Src/stm32f4xx_hal_i2s_ex.c **** 
1099:Drivers/STM32F4xx_HAL_Driver/Src/stm32f4xx_hal_i2s_ex.c ****     if(hi2s->RxXferCount == 0U)
1100:Drivers/STM32F4xx_HAL_Driver/Src/stm32f4xx_hal_i2s_ex.c ****     {
1101:Drivers/STM32F4xx_HAL_Driver/Src/stm32f4xx_hal_i2s_ex.c ****       /* Disable I2Sext RXNE and ERR interrupt */
1102:Drivers/STM32F4xx_HAL_Driver/Src/stm32f4xx_hal_i2s_ex.c ****       __HAL_I2SEXT_DISABLE_IT(hi2s, (I2S_IT_RXNE | I2S_IT_ERR));
1103:Drivers/STM32F4xx_HAL_Driver/Src/stm32f4xx_hal_i2s_ex.c **** 
1104:Drivers/STM32F4xx_HAL_Driver/Src/stm32f4xx_hal_i2s_ex.c ****       if(hi2s->TxXferCount == 0U)
1105:Drivers/STM32F4xx_HAL_Driver/Src/stm32f4xx_hal_i2s_ex.c ****       {
1106:Drivers/STM32F4xx_HAL_Driver/Src/stm32f4xx_hal_i2s_ex.c ****         hi2s->State = HAL_I2S_STATE_READY;
1107:Drivers/STM32F4xx_HAL_Driver/Src/stm32f4xx_hal_i2s_ex.c ****         HAL_I2SEx_TxRxCpltCallback(hi2s);
1108:Drivers/STM32F4xx_HAL_Driver/Src/stm32f4xx_hal_i2s_ex.c ****       }
1109:Drivers/STM32F4xx_HAL_Driver/Src/stm32f4xx_hal_i2s_ex.c ****     }
1110:Drivers/STM32F4xx_HAL_Driver/Src/stm32f4xx_hal_i2s_ex.c ****   }
1111:Drivers/STM32F4xx_HAL_Driver/Src/stm32f4xx_hal_i2s_ex.c **** }
1112:Drivers/STM32F4xx_HAL_Driver/Src/stm32f4xx_hal_i2s_ex.c **** 
1113:Drivers/STM32F4xx_HAL_Driver/Src/stm32f4xx_hal_i2s_ex.c **** /**
1114:Drivers/STM32F4xx_HAL_Driver/Src/stm32f4xx_hal_i2s_ex.c ****   * @brief This function handles I2S Communication Timeout.
1115:Drivers/STM32F4xx_HAL_Driver/Src/stm32f4xx_hal_i2s_ex.c ****   * @param hi2s I2S handle
1116:Drivers/STM32F4xx_HAL_Driver/Src/stm32f4xx_hal_i2s_ex.c ****   * @param Flag Flag checked
1117:Drivers/STM32F4xx_HAL_Driver/Src/stm32f4xx_hal_i2s_ex.c ****   * @param State Value of the flag expected
ARM GAS  /tmp/ccVZ1tTs.s 			page 22


1118:Drivers/STM32F4xx_HAL_Driver/Src/stm32f4xx_hal_i2s_ex.c ****   * @param Timeout Duration of the timeout
1119:Drivers/STM32F4xx_HAL_Driver/Src/stm32f4xx_hal_i2s_ex.c ****   * @param i2sUsed I2S instance reference
1120:Drivers/STM32F4xx_HAL_Driver/Src/stm32f4xx_hal_i2s_ex.c ****   * @retval HAL status
1121:Drivers/STM32F4xx_HAL_Driver/Src/stm32f4xx_hal_i2s_ex.c ****   */
1122:Drivers/STM32F4xx_HAL_Driver/Src/stm32f4xx_hal_i2s_ex.c **** static HAL_StatusTypeDef I2SEx_FullDuplexWaitFlagStateUntilTimeout(I2S_HandleTypeDef *hi2s, uint32_
  83              		.loc 1 1122 0
  84              		.cfi_startproc
  85              		@ args = 0, pretend = 0, frame = 0
  86              		@ frame_needed = 0, uses_anonymous_args = 0
  87              	.LVL3:
  88 0000 2DE9F843 		push	{r3, r4, r5, r6, r7, r8, r9, lr}
  89              	.LCFI0:
  90              		.cfi_def_cfa_offset 32
  91              		.cfi_offset 3, -32
  92              		.cfi_offset 4, -28
  93              		.cfi_offset 5, -24
  94              		.cfi_offset 6, -20
  95              		.cfi_offset 7, -16
  96              		.cfi_offset 8, -12
  97              		.cfi_offset 9, -8
  98              		.cfi_offset 14, -4
  99              		.loc 1 1122 0
 100 0004 0446     		mov	r4, r0
 101 0006 0F46     		mov	r7, r1
 102 0008 1546     		mov	r5, r2
 103 000a 9846     		mov	r8, r3
1123:Drivers/STM32F4xx_HAL_Driver/Src/stm32f4xx_hal_i2s_ex.c ****                                                                  uint32_t State, uint32_t Timeout, 
1124:Drivers/STM32F4xx_HAL_Driver/Src/stm32f4xx_hal_i2s_ex.c **** {
1125:Drivers/STM32F4xx_HAL_Driver/Src/stm32f4xx_hal_i2s_ex.c ****   uint32_t tickstart = HAL_GetTick();
 104              		.loc 1 1125 0
 105 000c FFF7FEFF 		bl	HAL_GetTick
 106              	.LVL4:
 107 0010 0646     		mov	r6, r0
 108              	.LVL5:
1126:Drivers/STM32F4xx_HAL_Driver/Src/stm32f4xx_hal_i2s_ex.c **** 
1127:Drivers/STM32F4xx_HAL_Driver/Src/stm32f4xx_hal_i2s_ex.c ****   if(i2sUsed == I2S_USE_I2S)
 109              		.loc 1 1127 0
 110 0012 B8F1000F 		cmp	r8, #0
 111 0016 1BD0     		beq	.L7
 112 0018 DFF85C80 		ldr	r8, .L21
 113 001c DFF85C90 		ldr	r9, .L21+4
 114              	.LVL6:
 115              	.L8:
 116 0020 2368     		ldr	r3, [r4]
 117 0022 4345     		cmp	r3, r8
 118 0024 0CBF     		ite	eq
 119 0026 4B46     		moveq	r3, r9
 120 0028 4FF04023 		movne	r3, #1073758208
 121              	.L18:
1128:Drivers/STM32F4xx_HAL_Driver/Src/stm32f4xx_hal_i2s_ex.c ****   {
1129:Drivers/STM32F4xx_HAL_Driver/Src/stm32f4xx_hal_i2s_ex.c ****     /* Wait until flag is reset */
1130:Drivers/STM32F4xx_HAL_Driver/Src/stm32f4xx_hal_i2s_ex.c ****     while(((__HAL_I2S_GET_FLAG(hi2s, Flag)) ? SET : RESET) != State)
1131:Drivers/STM32F4xx_HAL_Driver/Src/stm32f4xx_hal_i2s_ex.c ****     {
1132:Drivers/STM32F4xx_HAL_Driver/Src/stm32f4xx_hal_i2s_ex.c ****       if(Timeout != HAL_MAX_DELAY)
1133:Drivers/STM32F4xx_HAL_Driver/Src/stm32f4xx_hal_i2s_ex.c ****       {
1134:Drivers/STM32F4xx_HAL_Driver/Src/stm32f4xx_hal_i2s_ex.c ****         if((Timeout == 0U) || ((HAL_GetTick()-tickstart) > Timeout))
1135:Drivers/STM32F4xx_HAL_Driver/Src/stm32f4xx_hal_i2s_ex.c ****         {
ARM GAS  /tmp/ccVZ1tTs.s 			page 23


1136:Drivers/STM32F4xx_HAL_Driver/Src/stm32f4xx_hal_i2s_ex.c ****           /* Set the I2S State ready */
1137:Drivers/STM32F4xx_HAL_Driver/Src/stm32f4xx_hal_i2s_ex.c ****           hi2s->State= HAL_I2S_STATE_READY;
1138:Drivers/STM32F4xx_HAL_Driver/Src/stm32f4xx_hal_i2s_ex.c **** 
1139:Drivers/STM32F4xx_HAL_Driver/Src/stm32f4xx_hal_i2s_ex.c ****           /* Process Unlocked */
1140:Drivers/STM32F4xx_HAL_Driver/Src/stm32f4xx_hal_i2s_ex.c ****           __HAL_UNLOCK(hi2s);
1141:Drivers/STM32F4xx_HAL_Driver/Src/stm32f4xx_hal_i2s_ex.c **** 
1142:Drivers/STM32F4xx_HAL_Driver/Src/stm32f4xx_hal_i2s_ex.c ****           return HAL_TIMEOUT;
1143:Drivers/STM32F4xx_HAL_Driver/Src/stm32f4xx_hal_i2s_ex.c ****         }
1144:Drivers/STM32F4xx_HAL_Driver/Src/stm32f4xx_hal_i2s_ex.c ****       }
1145:Drivers/STM32F4xx_HAL_Driver/Src/stm32f4xx_hal_i2s_ex.c ****     }
1146:Drivers/STM32F4xx_HAL_Driver/Src/stm32f4xx_hal_i2s_ex.c ****   }
1147:Drivers/STM32F4xx_HAL_Driver/Src/stm32f4xx_hal_i2s_ex.c ****   else /* i2sUsed == I2S_USE_I2SEXT */
1148:Drivers/STM32F4xx_HAL_Driver/Src/stm32f4xx_hal_i2s_ex.c ****   {
1149:Drivers/STM32F4xx_HAL_Driver/Src/stm32f4xx_hal_i2s_ex.c ****     /* Wait until flag is reset */
1150:Drivers/STM32F4xx_HAL_Driver/Src/stm32f4xx_hal_i2s_ex.c ****     while(((__HAL_I2SEXT_GET_FLAG(hi2s, Flag)) ? SET : RESET) != State)
 122              		.loc 1 1150 0
 123 002c 9A68     		ldr	r2, [r3, #8]
 124 002e 37EA0202 		bics	r2, r7, r2
 125 0032 1FD0     		beq	.L12
1151:Drivers/STM32F4xx_HAL_Driver/Src/stm32f4xx_hal_i2s_ex.c ****     {
1152:Drivers/STM32F4xx_HAL_Driver/Src/stm32f4xx_hal_i2s_ex.c ****       if(Timeout != HAL_MAX_DELAY)
 126              		.loc 1 1152 0
 127 0034 6A1C     		adds	r2, r5, #1
 128 0036 F9D0     		beq	.L18
1153:Drivers/STM32F4xx_HAL_Driver/Src/stm32f4xx_hal_i2s_ex.c ****       {
1154:Drivers/STM32F4xx_HAL_Driver/Src/stm32f4xx_hal_i2s_ex.c ****         if((Timeout == 0U) || ((HAL_GetTick()-tickstart) > Timeout))
 129              		.loc 1 1154 0
 130 0038 9DB1     		cbz	r5, .L16
 131 003a FFF7FEFF 		bl	HAL_GetTick
 132              	.LVL7:
 133 003e 801B     		subs	r0, r0, r6
 134 0040 8542     		cmp	r5, r0
 135 0042 EDD2     		bcs	.L8
 136 0044 0DE0     		b	.L16
 137              	.L9:
1134:Drivers/STM32F4xx_HAL_Driver/Src/stm32f4xx_hal_i2s_ex.c ****         {
 138              		.loc 1 1134 0
 139 0046 FFF7FEFF 		bl	HAL_GetTick
 140              	.LVL8:
 141 004a 801B     		subs	r0, r0, r6
 142 004c 8542     		cmp	r5, r0
 143 004e 08D3     		bcc	.L16
 144              	.L7:
1130:Drivers/STM32F4xx_HAL_Driver/Src/stm32f4xx_hal_i2s_ex.c ****     {
 145              		.loc 1 1130 0
 146 0050 2368     		ldr	r3, [r4]
 147              	.L14:
 148 0052 9A68     		ldr	r2, [r3, #8]
 149 0054 37EA0202 		bics	r2, r7, r2
 150 0058 0CD0     		beq	.L12
1132:Drivers/STM32F4xx_HAL_Driver/Src/stm32f4xx_hal_i2s_ex.c ****       {
 151              		.loc 1 1132 0
 152 005a 691C     		adds	r1, r5, #1
 153 005c F9D0     		beq	.L14
1134:Drivers/STM32F4xx_HAL_Driver/Src/stm32f4xx_hal_i2s_ex.c ****         {
 154              		.loc 1 1134 0
 155 005e 002D     		cmp	r5, #0
ARM GAS  /tmp/ccVZ1tTs.s 			page 24


 156 0060 F1D1     		bne	.L9
 157              	.L16:
1155:Drivers/STM32F4xx_HAL_Driver/Src/stm32f4xx_hal_i2s_ex.c ****         {
1156:Drivers/STM32F4xx_HAL_Driver/Src/stm32f4xx_hal_i2s_ex.c ****           /* Set the I2S State ready */
1157:Drivers/STM32F4xx_HAL_Driver/Src/stm32f4xx_hal_i2s_ex.c ****           hi2s->State= HAL_I2S_STATE_READY;
 158              		.loc 1 1157 0
 159 0062 0123     		movs	r3, #1
 160 0064 84F84130 		strb	r3, [r4, #65]
1158:Drivers/STM32F4xx_HAL_Driver/Src/stm32f4xx_hal_i2s_ex.c **** 
1159:Drivers/STM32F4xx_HAL_Driver/Src/stm32f4xx_hal_i2s_ex.c ****           /* Process Unlocked */
1160:Drivers/STM32F4xx_HAL_Driver/Src/stm32f4xx_hal_i2s_ex.c ****           __HAL_UNLOCK(hi2s);
 161              		.loc 1 1160 0
 162 0068 0023     		movs	r3, #0
 163 006a 84F84030 		strb	r3, [r4, #64]
1161:Drivers/STM32F4xx_HAL_Driver/Src/stm32f4xx_hal_i2s_ex.c **** 
1162:Drivers/STM32F4xx_HAL_Driver/Src/stm32f4xx_hal_i2s_ex.c ****           return HAL_TIMEOUT;
 164              		.loc 1 1162 0
 165 006e 0320     		movs	r0, #3
 166              	.L10:
1163:Drivers/STM32F4xx_HAL_Driver/Src/stm32f4xx_hal_i2s_ex.c ****         }
1164:Drivers/STM32F4xx_HAL_Driver/Src/stm32f4xx_hal_i2s_ex.c ****       }
1165:Drivers/STM32F4xx_HAL_Driver/Src/stm32f4xx_hal_i2s_ex.c ****     }
1166:Drivers/STM32F4xx_HAL_Driver/Src/stm32f4xx_hal_i2s_ex.c ****   }
1167:Drivers/STM32F4xx_HAL_Driver/Src/stm32f4xx_hal_i2s_ex.c ****   return HAL_OK;
1168:Drivers/STM32F4xx_HAL_Driver/Src/stm32f4xx_hal_i2s_ex.c **** }
 167              		.loc 1 1168 0
 168 0070 BDE8F883 		pop	{r3, r4, r5, r6, r7, r8, r9, pc}
 169              	.LVL9:
 170              	.L12:
1167:Drivers/STM32F4xx_HAL_Driver/Src/stm32f4xx_hal_i2s_ex.c **** }
 171              		.loc 1 1167 0
 172 0074 0020     		movs	r0, #0
 173 0076 FBE7     		b	.L10
 174              	.L22:
 175              		.align	2
 176              	.L21:
 177 0078 00380040 		.word	1073756160
 178 007c 00340040 		.word	1073755136
 179              		.cfi_endproc
 180              	.LFE142:
 182              		.section	.text.HAL_I2SEx_TransmitReceive,"ax",%progbits
 183              		.align	1
 184              		.global	HAL_I2SEx_TransmitReceive
 185              		.syntax unified
 186              		.thumb
 187              		.thumb_func
 188              		.fpu fpv4-sp-d16
 190              	HAL_I2SEx_TransmitReceive:
 191              	.LFB126:
 217:Drivers/STM32F4xx_HAL_Driver/Src/stm32f4xx_hal_i2s_ex.c ****   uint32_t tmp1 = 0U;
 192              		.loc 1 217 0
 193              		.cfi_startproc
 194              		@ args = 4, pretend = 0, frame = 24
 195              		@ frame_needed = 0, uses_anonymous_args = 0
 196              	.LVL10:
 197 0000 2DE9F047 		push	{r4, r5, r6, r7, r8, r9, r10, lr}
 198              	.LCFI1:
ARM GAS  /tmp/ccVZ1tTs.s 			page 25


 199              		.cfi_def_cfa_offset 32
 200              		.cfi_offset 4, -32
 201              		.cfi_offset 5, -28
 202              		.cfi_offset 6, -24
 203              		.cfi_offset 7, -20
 204              		.cfi_offset 8, -16
 205              		.cfi_offset 9, -12
 206              		.cfi_offset 10, -8
 207              		.cfi_offset 14, -4
 208 0004 0446     		mov	r4, r0
 209              	.LVL11:
 210 0006 86B0     		sub	sp, sp, #24
 211              	.LCFI2:
 212              		.cfi_def_cfa_offset 56
 217:Drivers/STM32F4xx_HAL_Driver/Src/stm32f4xx_hal_i2s_ex.c ****   uint32_t tmp1 = 0U;
 213              		.loc 1 217 0
 214 0008 1646     		mov	r6, r2
 220:Drivers/STM32F4xx_HAL_Driver/Src/stm32f4xx_hal_i2s_ex.c ****   {
 215              		.loc 1 220 0
 216 000a 0029     		cmp	r1, #0
 217 000c 00F03D81 		beq	.L52
 220:Drivers/STM32F4xx_HAL_Driver/Src/stm32f4xx_hal_i2s_ex.c ****   {
 218              		.loc 1 220 0 is_stmt 0 discriminator 1
 219 0010 002A     		cmp	r2, #0
 220 0012 00F03A81 		beq	.L52
 220:Drivers/STM32F4xx_HAL_Driver/Src/stm32f4xx_hal_i2s_ex.c ****   {
 221              		.loc 1 220 0 discriminator 2
 222 0016 002B     		cmp	r3, #0
 223 0018 00F03781 		beq	.L52
 226:Drivers/STM32F4xx_HAL_Driver/Src/stm32f4xx_hal_i2s_ex.c ****   {
 224              		.loc 1 226 0 is_stmt 1
 225 001c 90F84120 		ldrb	r2, [r0, #65]	@ zero_extendqisi2
 226              	.LVL12:
 227 0020 012A     		cmp	r2, #1
 228 0022 04D0     		beq	.L25
 229              	.LVL13:
 230              	.L29:
 450:Drivers/STM32F4xx_HAL_Driver/Src/stm32f4xx_hal_i2s_ex.c ****   }
 231              		.loc 1 450 0
 232 0024 0225     		movs	r5, #2
 233              	.LVL14:
 234              	.L24:
 452:Drivers/STM32F4xx_HAL_Driver/Src/stm32f4xx_hal_i2s_ex.c **** 
 235              		.loc 1 452 0
 236 0026 2846     		mov	r0, r5
 237 0028 06B0     		add	sp, sp, #24
 238              	.LCFI3:
 239              		.cfi_remember_state
 240              		.cfi_def_cfa_offset 32
 241              		@ sp needed
 242 002a BDE8F087 		pop	{r4, r5, r6, r7, r8, r9, r10, pc}
 243              	.LVL15:
 244              	.L25:
 245              	.LCFI4:
 246              		.cfi_restore_state
 228:Drivers/STM32F4xx_HAL_Driver/Src/stm32f4xx_hal_i2s_ex.c ****     /* Check the Data format: When a 16-bit data frame or a 16-bit data frame extended
 247              		.loc 1 228 0
ARM GAS  /tmp/ccVZ1tTs.s 			page 26


 248 002e 0268     		ldr	r2, [r0]
 249 0030 D069     		ldr	r0, [r2, #28]
 250              	.LVL16:
 251 0032 00F00700 		and	r0, r0, #7
 252              	.LVL17:
 233:Drivers/STM32F4xx_HAL_Driver/Src/stm32f4xx_hal_i2s_ex.c ****     {
 253              		.loc 1 233 0
 254 0036 0328     		cmp	r0, #3
 255 0038 01D0     		beq	.L26
 233:Drivers/STM32F4xx_HAL_Driver/Src/stm32f4xx_hal_i2s_ex.c ****     {
 256              		.loc 1 233 0 is_stmt 0 discriminator 1
 257 003a 0528     		cmp	r0, #5
 258 003c 01D1     		bne	.L27
 259              	.L26:
 235:Drivers/STM32F4xx_HAL_Driver/Src/stm32f4xx_hal_i2s_ex.c ****       hi2s->TxXferCount = (Size << 1U);
 260              		.loc 1 235 0 is_stmt 1
 261 003e 5B00     		lsls	r3, r3, #1
 262              	.LVL18:
 263 0040 9BB2     		uxth	r3, r3
 264              	.L27:
 242:Drivers/STM32F4xx_HAL_Driver/Src/stm32f4xx_hal_i2s_ex.c ****       hi2s->TxXferCount = Size;
 265              		.loc 1 242 0
 266 0042 2385     		strh	r3, [r4, #40]	@ movhi
 243:Drivers/STM32F4xx_HAL_Driver/Src/stm32f4xx_hal_i2s_ex.c ****       hi2s->RxXferSize  = Size;
 267              		.loc 1 243 0
 268 0044 6385     		strh	r3, [r4, #42]	@ movhi
 244:Drivers/STM32F4xx_HAL_Driver/Src/stm32f4xx_hal_i2s_ex.c ****       hi2s->RxXferCount = Size;
 269              		.loc 1 244 0
 270 0046 2386     		strh	r3, [r4, #48]	@ movhi
 245:Drivers/STM32F4xx_HAL_Driver/Src/stm32f4xx_hal_i2s_ex.c ****     }
 271              		.loc 1 245 0
 272 0048 6386     		strh	r3, [r4, #50]	@ movhi
 249:Drivers/STM32F4xx_HAL_Driver/Src/stm32f4xx_hal_i2s_ex.c **** 
 273              		.loc 1 249 0
 274 004a 94F84030 		ldrb	r3, [r4, #64]	@ zero_extendqisi2
 275 004e 012B     		cmp	r3, #1
 276 0050 E8D0     		beq	.L29
 249:Drivers/STM32F4xx_HAL_Driver/Src/stm32f4xx_hal_i2s_ex.c **** 
 277              		.loc 1 249 0 is_stmt 0 discriminator 2
 278 0052 0123     		movs	r3, #1
 279 0054 84F84030 		strb	r3, [r4, #64]
 251:Drivers/STM32F4xx_HAL_Driver/Src/stm32f4xx_hal_i2s_ex.c **** 
 280              		.loc 1 251 0 is_stmt 1 discriminator 2
 281 0058 0020     		movs	r0, #0
 282              	.LVL19:
 254:Drivers/STM32F4xx_HAL_Driver/Src/stm32f4xx_hal_i2s_ex.c **** 
 283              		.loc 1 254 0 discriminator 2
 284 005a 0523     		movs	r3, #5
 251:Drivers/STM32F4xx_HAL_Driver/Src/stm32f4xx_hal_i2s_ex.c **** 
 285              		.loc 1 251 0 discriminator 2
 286 005c 6064     		str	r0, [r4, #68]
 254:Drivers/STM32F4xx_HAL_Driver/Src/stm32f4xx_hal_i2s_ex.c **** 
 287              		.loc 1 254 0 discriminator 2
 288 005e 84F84130 		strb	r3, [r4, #65]
 256:Drivers/STM32F4xx_HAL_Driver/Src/stm32f4xx_hal_i2s_ex.c ****     /* Check if the I2S_MODE_MASTER_TX or I2S_MODE_SLAVE_TX Mode is selected */
 289              		.loc 1 256 0 discriminator 2
 290 0062 D369     		ldr	r3, [r2, #28]
ARM GAS  /tmp/ccVZ1tTs.s 			page 27


 291 0064 DFF82CE2 		ldr	lr, .L84+4
 292 0068 0D46     		mov	r5, r1
 258:Drivers/STM32F4xx_HAL_Driver/Src/stm32f4xx_hal_i2s_ex.c ****     {
 293              		.loc 1 258 0 discriminator 2
 294 006a 13F48071 		ands	r1, r3, #256
 295              	.LVL20:
 256:Drivers/STM32F4xx_HAL_Driver/Src/stm32f4xx_hal_i2s_ex.c ****     /* Check if the I2S_MODE_MASTER_TX or I2S_MODE_SLAVE_TX Mode is selected */
 296              		.loc 1 256 0 discriminator 2
 297 006e 03F44077 		and	r7, r3, #768
 298              	.LVL21:
 299 0072 35F802CB 		ldrh	ip, [r5], #2
 300              	.LVL22:
 258:Drivers/STM32F4xx_HAL_Driver/Src/stm32f4xx_hal_i2s_ex.c ****     {
 301              		.loc 1 258 0 discriminator 2
 302 0076 40F09080 		bne	.L30
 303              	.LVL23:
 261:Drivers/STM32F4xx_HAL_Driver/Src/stm32f4xx_hal_i2s_ex.c ****       hi2s->TxXferCount--;
 304              		.loc 1 261 0
 305 007a C2F80CC0 		str	ip, [r2, #12]
 262:Drivers/STM32F4xx_HAL_Driver/Src/stm32f4xx_hal_i2s_ex.c **** 
 306              		.loc 1 262 0
 307 007e 608D     		ldrh	r0, [r4, #42]
 265:Drivers/STM32F4xx_HAL_Driver/Src/stm32f4xx_hal_i2s_ex.c **** 
 308              		.loc 1 265 0
 309 0080 834B     		ldr	r3, .L84
 262:Drivers/STM32F4xx_HAL_Driver/Src/stm32f4xx_hal_i2s_ex.c **** 
 310              		.loc 1 262 0
 311 0082 0138     		subs	r0, r0, #1
 265:Drivers/STM32F4xx_HAL_Driver/Src/stm32f4xx_hal_i2s_ex.c **** 
 312              		.loc 1 265 0
 313 0084 7245     		cmp	r2, lr
 314 0086 18BF     		it	ne
 315 0088 4FF04023 		movne	r3, #1073758208
 262:Drivers/STM32F4xx_HAL_Driver/Src/stm32f4xx_hal_i2s_ex.c **** 
 316              		.loc 1 262 0
 317 008c 80B2     		uxth	r0, r0
 318 008e 6085     		strh	r0, [r4, #42]	@ movhi
 265:Drivers/STM32F4xx_HAL_Driver/Src/stm32f4xx_hal_i2s_ex.c **** 
 319              		.loc 1 265 0
 320 0090 D869     		ldr	r0, [r3, #28]
 321 0092 40F48060 		orr	r0, r0, #1024
 322 0096 D861     		str	r0, [r3, #28]
 268:Drivers/STM32F4xx_HAL_Driver/Src/stm32f4xx_hal_i2s_ex.c **** 
 323              		.loc 1 268 0
 324 0098 D069     		ldr	r0, [r2, #28]
 325 009a 40F48060 		orr	r0, r0, #1024
 326 009e D061     		str	r0, [r2, #28]
 271:Drivers/STM32F4xx_HAL_Driver/Src/stm32f4xx_hal_i2s_ex.c ****       {
 327              		.loc 1 271 0
 328 00a0 D269     		ldr	r2, [r2, #28]
 329 00a2 02F44072 		and	r2, r2, #768
 330 00a6 B2F5007F 		cmp	r2, #512
 331 00aa 05D1     		bne	.L32
 332              	.LBB8:
 275:Drivers/STM32F4xx_HAL_Driver/Src/stm32f4xx_hal_i2s_ex.c ****       }
 333              		.loc 1 275 0
 334 00ac 0091     		str	r1, [sp]
ARM GAS  /tmp/ccVZ1tTs.s 			page 28


 335 00ae DA68     		ldr	r2, [r3, #12]
 336 00b0 0092     		str	r2, [sp]
 337 00b2 9B68     		ldr	r3, [r3, #8]
 338 00b4 0093     		str	r3, [sp]
 339 00b6 009B     		ldr	r3, [sp]
 340              	.L32:
 341              	.LBE8:
 324:Drivers/STM32F4xx_HAL_Driver/Src/stm32f4xx_hal_i2s_ex.c ****           hi2s->RxXferCount--;
 342              		.loc 1 324 0
 343 00b8 DFF8D891 		ldr	r9, .L84+4
 344 00bc DFF8D0A1 		ldr	r10, .L84
 345              	.LVL24:
 346              	.L33:
 278:Drivers/STM32F4xx_HAL_Driver/Src/stm32f4xx_hal_i2s_ex.c ****       {
 347              		.loc 1 278 0
 348 00c0 638E     		ldrh	r3, [r4, #50]
 349 00c2 9BB2     		uxth	r3, r3
 350 00c4 53B9     		cbnz	r3, .L39
 278:Drivers/STM32F4xx_HAL_Driver/Src/stm32f4xx_hal_i2s_ex.c ****       {
 351              		.loc 1 278 0 is_stmt 0 discriminator 1
 352 00c6 638D     		ldrh	r3, [r4, #42]
 353 00c8 9BB2     		uxth	r3, r3
 354 00ca 3BB9     		cbnz	r3, .L39
 355              	.L49:
 444:Drivers/STM32F4xx_HAL_Driver/Src/stm32f4xx_hal_i2s_ex.c **** 
 356              		.loc 1 444 0 is_stmt 1
 357 00cc 0020     		movs	r0, #0
 441:Drivers/STM32F4xx_HAL_Driver/Src/stm32f4xx_hal_i2s_ex.c **** 
 358              		.loc 1 441 0
 359 00ce 0123     		movs	r3, #1
 360 00d0 84F84130 		strb	r3, [r4, #65]
 446:Drivers/STM32F4xx_HAL_Driver/Src/stm32f4xx_hal_i2s_ex.c ****   }
 361              		.loc 1 446 0
 362 00d4 0546     		mov	r5, r0
 363              	.LVL25:
 444:Drivers/STM32F4xx_HAL_Driver/Src/stm32f4xx_hal_i2s_ex.c **** 
 364              		.loc 1 444 0
 365 00d6 84F84000 		strb	r0, [r4, #64]
 446:Drivers/STM32F4xx_HAL_Driver/Src/stm32f4xx_hal_i2s_ex.c ****   }
 366              		.loc 1 446 0
 367 00da A4E7     		b	.L24
 368              	.LVL26:
 369              	.L39:
 280:Drivers/STM32F4xx_HAL_Driver/Src/stm32f4xx_hal_i2s_ex.c ****         {
 370              		.loc 1 280 0
 371 00dc 638D     		ldrh	r3, [r4, #42]
 372 00de 9BB2     		uxth	r3, r3
 373 00e0 6BB3     		cbz	r3, .L54
 283:Drivers/STM32F4xx_HAL_Driver/Src/stm32f4xx_hal_i2s_ex.c ****           {
 374              		.loc 1 283 0
 375 00e2 0023     		movs	r3, #0
 376 00e4 0E9A     		ldr	r2, [sp, #56]
 377 00e6 0221     		movs	r1, #2
 378 00e8 2046     		mov	r0, r4
 379 00ea FFF7FEFF 		bl	I2SEx_FullDuplexWaitFlagStateUntilTimeout.constprop.5
 380              	.LVL27:
 381 00ee 40B1     		cbz	r0, .L35
ARM GAS  /tmp/ccVZ1tTs.s 			page 29


 382              	.LVL28:
 383              	.L82:
 410:Drivers/STM32F4xx_HAL_Driver/Src/stm32f4xx_hal_i2s_ex.c ****             HAL_I2S_ErrorCallback(hi2s);
 384              		.loc 1 410 0
 385 00f0 636C     		ldr	r3, [r4, #68]
 386 00f2 43F00103 		orr	r3, r3, #1
 387 00f6 6364     		str	r3, [r4, #68]
 388              	.LVL29:
 411:Drivers/STM32F4xx_HAL_Driver/Src/stm32f4xx_hal_i2s_ex.c ****             return HAL_TIMEOUT;
 389              		.loc 1 411 0
 390 00f8 2046     		mov	r0, r4
 391 00fa FFF7FEFF 		bl	HAL_I2S_ErrorCallback
 392              	.LVL30:
 412:Drivers/STM32F4xx_HAL_Driver/Src/stm32f4xx_hal_i2s_ex.c ****           }
 393              		.loc 1 412 0
 394 00fe 0325     		movs	r5, #3
 395 0100 91E7     		b	.L24
 396              	.LVL31:
 397              	.L35:
 291:Drivers/STM32F4xx_HAL_Driver/Src/stm32f4xx_hal_i2s_ex.c ****           hi2s->TxXferCount--;
 398              		.loc 1 291 0
 399 0102 2268     		ldr	r2, [r4]
 400 0104 2B88     		ldrh	r3, [r5]
 401 0106 D360     		str	r3, [r2, #12]
 292:Drivers/STM32F4xx_HAL_Driver/Src/stm32f4xx_hal_i2s_ex.c **** 
 402              		.loc 1 292 0
 403 0108 638D     		ldrh	r3, [r4, #42]
 404 010a 013B     		subs	r3, r3, #1
 405 010c 9BB2     		uxth	r3, r3
 406 010e 6385     		strh	r3, [r4, #42]	@ movhi
 295:Drivers/STM32F4xx_HAL_Driver/Src/stm32f4xx_hal_i2s_ex.c ****           {
 407              		.loc 1 295 0
 408 0110 9368     		ldr	r3, [r2, #8]
 409 0112 1B07     		lsls	r3, r3, #28
 291:Drivers/STM32F4xx_HAL_Driver/Src/stm32f4xx_hal_i2s_ex.c ****           hi2s->TxXferCount--;
 410              		.loc 1 291 0
 411 0114 05F10208 		add	r8, r5, #2
 412              	.LVL32:
 295:Drivers/STM32F4xx_HAL_Driver/Src/stm32f4xx_hal_i2s_ex.c ****           {
 413              		.loc 1 295 0
 414 0118 12D5     		bpl	.L34
 295:Drivers/STM32F4xx_HAL_Driver/Src/stm32f4xx_hal_i2s_ex.c ****           {
 415              		.loc 1 295 0 is_stmt 0 discriminator 1
 416 011a 8FB9     		cbnz	r7, .L34
 417              	.LBB9:
 298:Drivers/STM32F4xx_HAL_Driver/Src/stm32f4xx_hal_i2s_ex.c **** 
 418              		.loc 1 298 0 is_stmt 1
 419 011c 0197     		str	r7, [sp, #4]
 420 011e 9368     		ldr	r3, [r2, #8]
 421 0120 0193     		str	r3, [sp, #4]
 422              	.LBE9:
 301:Drivers/STM32F4xx_HAL_Driver/Src/stm32f4xx_hal_i2s_ex.c **** 
 423              		.loc 1 301 0
 424 0122 0125     		movs	r5, #1
 425              	.LBB10:
 298:Drivers/STM32F4xx_HAL_Driver/Src/stm32f4xx_hal_i2s_ex.c **** 
 426              		.loc 1 298 0
ARM GAS  /tmp/ccVZ1tTs.s 			page 30


 427 0124 019B     		ldr	r3, [sp, #4]
 428              	.LBE10:
 301:Drivers/STM32F4xx_HAL_Driver/Src/stm32f4xx_hal_i2s_ex.c **** 
 429              		.loc 1 301 0
 430 0126 84F84150 		strb	r5, [r4, #65]
 304:Drivers/STM32F4xx_HAL_Driver/Src/stm32f4xx_hal_i2s_ex.c **** 
 431              		.loc 1 304 0
 432 012a 84F84070 		strb	r7, [r4, #64]
 433              	.L83:
 398:Drivers/STM32F4xx_HAL_Driver/Src/stm32f4xx_hal_i2s_ex.c ****             HAL_I2S_ErrorCallback(hi2s);
 434              		.loc 1 398 0
 435 012e 636C     		ldr	r3, [r4, #68]
 436 0130 43F00403 		orr	r3, r3, #4
 437              	.LVL33:
 438              	.L81:
 431:Drivers/STM32F4xx_HAL_Driver/Src/stm32f4xx_hal_i2s_ex.c ****             HAL_I2S_ErrorCallback(hi2s);
 439              		.loc 1 431 0
 440 0134 6364     		str	r3, [r4, #68]
 441              	.LVL34:
 432:Drivers/STM32F4xx_HAL_Driver/Src/stm32f4xx_hal_i2s_ex.c **** 
 442              		.loc 1 432 0
 443 0136 2046     		mov	r0, r4
 444 0138 FFF7FEFF 		bl	HAL_I2S_ErrorCallback
 445              	.LVL35:
 434:Drivers/STM32F4xx_HAL_Driver/Src/stm32f4xx_hal_i2s_ex.c ****           }
 446              		.loc 1 434 0
 447 013c 73E7     		b	.L24
 448              	.LVL36:
 449              	.L54:
 450 013e A846     		mov	r8, r5
 451              	.LVL37:
 452              	.L34:
 313:Drivers/STM32F4xx_HAL_Driver/Src/stm32f4xx_hal_i2s_ex.c ****         {
 453              		.loc 1 313 0
 454 0140 638E     		ldrh	r3, [r4, #50]
 455 0142 9BB2     		uxth	r3, r3
 456 0144 3BB3     		cbz	r3, .L36
 316:Drivers/STM32F4xx_HAL_Driver/Src/stm32f4xx_hal_i2s_ex.c ****           {
 457              		.loc 1 316 0
 458 0146 0123     		movs	r3, #1
 459 0148 0E9A     		ldr	r2, [sp, #56]
 460 014a 1946     		mov	r1, r3
 461 014c 2046     		mov	r0, r4
 462 014e FFF7FEFF 		bl	I2SEx_FullDuplexWaitFlagStateUntilTimeout.constprop.5
 463              	.LVL38:
 464 0152 0028     		cmp	r0, #0
 465 0154 CCD1     		bne	.L82
 324:Drivers/STM32F4xx_HAL_Driver/Src/stm32f4xx_hal_i2s_ex.c ****           hi2s->RxXferCount--;
 466              		.loc 1 324 0
 467 0156 2268     		ldr	r2, [r4]
 468 0158 4A45     		cmp	r2, r9
 469 015a 0CBF     		ite	eq
 470 015c 5146     		moveq	r1, r10
 471 015e 4FF04021 		movne	r1, #1073758208
 472 0162 B51C     		adds	r5, r6, #2
 473              	.LVL39:
 474 0164 CB68     		ldr	r3, [r1, #12]
ARM GAS  /tmp/ccVZ1tTs.s 			page 31


 475 0166 3380     		strh	r3, [r6]	@ movhi
 325:Drivers/STM32F4xx_HAL_Driver/Src/stm32f4xx_hal_i2s_ex.c **** 
 476              		.loc 1 325 0
 477 0168 638E     		ldrh	r3, [r4, #50]
 478 016a 013B     		subs	r3, r3, #1
 479 016c 9BB2     		uxth	r3, r3
 480 016e 6386     		strh	r3, [r4, #50]	@ movhi
 328:Drivers/STM32F4xx_HAL_Driver/Src/stm32f4xx_hal_i2s_ex.c ****           {
 481              		.loc 1 328 0
 482 0170 8B68     		ldr	r3, [r1, #8]
 483 0172 5E06     		lsls	r6, r3, #25
 484 0174 0ED5     		bpl	.L56
 485              	.LBB11:
 331:Drivers/STM32F4xx_HAL_Driver/Src/stm32f4xx_hal_i2s_ex.c **** 
 486              		.loc 1 331 0
 487 0176 0290     		str	r0, [sp, #8]
 488 0178 D368     		ldr	r3, [r2, #12]
 489 017a 0293     		str	r3, [sp, #8]
 490 017c 9368     		ldr	r3, [r2, #8]
 491 017e 0293     		str	r3, [sp, #8]
 492 0180 029B     		ldr	r3, [sp, #8]
 493              	.LVL40:
 494              	.L80:
 495              	.LBE11:
 425:Drivers/STM32F4xx_HAL_Driver/Src/stm32f4xx_hal_i2s_ex.c **** 
 496              		.loc 1 425 0
 497 0182 0125     		movs	r5, #1
 498 0184 84F84150 		strb	r5, [r4, #65]
 428:Drivers/STM32F4xx_HAL_Driver/Src/stm32f4xx_hal_i2s_ex.c **** 
 499              		.loc 1 428 0
 500 0188 84F84000 		strb	r0, [r4, #64]
 431:Drivers/STM32F4xx_HAL_Driver/Src/stm32f4xx_hal_i2s_ex.c ****             HAL_I2S_ErrorCallback(hi2s);
 501              		.loc 1 431 0
 502 018c 636C     		ldr	r3, [r4, #68]
 503 018e 43F00203 		orr	r3, r3, #2
 504 0192 CFE7     		b	.L81
 505              	.LVL41:
 506              	.L56:
 324:Drivers/STM32F4xx_HAL_Driver/Src/stm32f4xx_hal_i2s_ex.c ****           hi2s->RxXferCount--;
 507              		.loc 1 324 0
 508 0194 2E46     		mov	r6, r5
 509              	.LVL42:
 510              	.L36:
 511 0196 4546     		mov	r5, r8
 512 0198 92E7     		b	.L33
 513              	.LVL43:
 514              	.L30:
 352:Drivers/STM32F4xx_HAL_Driver/Src/stm32f4xx_hal_i2s_ex.c ****       hi2s->TxXferCount--;
 515              		.loc 1 352 0
 516 019a 3D4B     		ldr	r3, .L84
 517 019c 7245     		cmp	r2, lr
 518 019e 18BF     		it	ne
 519 01a0 4FF04023 		movne	r3, #1073758208
 520 01a4 C3F80CC0 		str	ip, [r3, #12]
 353:Drivers/STM32F4xx_HAL_Driver/Src/stm32f4xx_hal_i2s_ex.c **** 
 521              		.loc 1 353 0
 522 01a8 618D     		ldrh	r1, [r4, #42]
ARM GAS  /tmp/ccVZ1tTs.s 			page 32


 523 01aa 0139     		subs	r1, r1, #1
 524 01ac 89B2     		uxth	r1, r1
 525 01ae 6185     		strh	r1, [r4, #42]	@ movhi
 356:Drivers/STM32F4xx_HAL_Driver/Src/stm32f4xx_hal_i2s_ex.c ****       
 526              		.loc 1 356 0
 527 01b0 D969     		ldr	r1, [r3, #28]
 528 01b2 41F48061 		orr	r1, r1, #1024
 529 01b6 D961     		str	r1, [r3, #28]
 359:Drivers/STM32F4xx_HAL_Driver/Src/stm32f4xx_hal_i2s_ex.c **** 
 530              		.loc 1 359 0
 531 01b8 D369     		ldr	r3, [r2, #28]
 532 01ba 43F48063 		orr	r3, r3, #1024
 533 01be D361     		str	r3, [r2, #28]
 362:Drivers/STM32F4xx_HAL_Driver/Src/stm32f4xx_hal_i2s_ex.c ****       {
 534              		.loc 1 362 0
 535 01c0 D369     		ldr	r3, [r2, #28]
 536 01c2 03F44073 		and	r3, r3, #768
 537 01c6 B3F5407F 		cmp	r3, #768
 538 01ca 05D1     		bne	.L41
 539              	.LBB12:
 366:Drivers/STM32F4xx_HAL_Driver/Src/stm32f4xx_hal_i2s_ex.c ****       }
 540              		.loc 1 366 0
 541 01cc 0390     		str	r0, [sp, #12]
 542 01ce D368     		ldr	r3, [r2, #12]
 543 01d0 0393     		str	r3, [sp, #12]
 544 01d2 9368     		ldr	r3, [r2, #8]
 545 01d4 0393     		str	r3, [sp, #12]
 546 01d6 039B     		ldr	r3, [sp, #12]
 547              	.L41:
 548              	.LBE12:
 382:Drivers/STM32F4xx_HAL_Driver/Src/stm32f4xx_hal_i2s_ex.c ****           hi2s->TxXferCount--;
 549              		.loc 1 382 0
 550 01d8 DFF8B890 		ldr	r9, .L84+4
 551 01dc DFF8B0A0 		ldr	r10, .L84
 552              	.LVL44:
 553              	.L42:
 369:Drivers/STM32F4xx_HAL_Driver/Src/stm32f4xx_hal_i2s_ex.c ****       {
 554              		.loc 1 369 0
 555 01e0 638E     		ldrh	r3, [r4, #50]
 556 01e2 9BB2     		uxth	r3, r3
 557 01e4 23B9     		cbnz	r3, .L48
 369:Drivers/STM32F4xx_HAL_Driver/Src/stm32f4xx_hal_i2s_ex.c ****       {
 558              		.loc 1 369 0 is_stmt 0 discriminator 1
 559 01e6 638D     		ldrh	r3, [r4, #42]
 560 01e8 9BB2     		uxth	r3, r3
 561 01ea 002B     		cmp	r3, #0
 562 01ec 3FF46EAF 		beq	.L49
 563              	.L48:
 371:Drivers/STM32F4xx_HAL_Driver/Src/stm32f4xx_hal_i2s_ex.c ****         {
 564              		.loc 1 371 0 is_stmt 1
 565 01f0 638D     		ldrh	r3, [r4, #42]
 566 01f2 9BB2     		uxth	r3, r3
 567 01f4 33B3     		cbz	r3, .L58
 374:Drivers/STM32F4xx_HAL_Driver/Src/stm32f4xx_hal_i2s_ex.c ****           {
 568              		.loc 1 374 0
 569 01f6 0123     		movs	r3, #1
 570 01f8 0E9A     		ldr	r2, [sp, #56]
ARM GAS  /tmp/ccVZ1tTs.s 			page 33


 571 01fa 0221     		movs	r1, #2
 572 01fc 2046     		mov	r0, r4
 573 01fe FFF7FEFF 		bl	I2SEx_FullDuplexWaitFlagStateUntilTimeout.constprop.5
 574              	.LVL45:
 575 0202 0028     		cmp	r0, #0
 576 0204 7FF474AF 		bne	.L82
 382:Drivers/STM32F4xx_HAL_Driver/Src/stm32f4xx_hal_i2s_ex.c ****           hi2s->TxXferCount--;
 577              		.loc 1 382 0
 578 0208 2268     		ldr	r2, [r4]
 579 020a 2B88     		ldrh	r3, [r5]
 580 020c 4A45     		cmp	r2, r9
 581 020e 0CBF     		ite	eq
 582 0210 5146     		moveq	r1, r10
 583 0212 4FF04021 		movne	r1, #1073758208
 584 0216 05F10208 		add	r8, r5, #2
 585              	.LVL46:
 586 021a CB60     		str	r3, [r1, #12]
 383:Drivers/STM32F4xx_HAL_Driver/Src/stm32f4xx_hal_i2s_ex.c **** 
 587              		.loc 1 383 0
 588 021c 638D     		ldrh	r3, [r4, #42]
 589 021e 013B     		subs	r3, r3, #1
 590 0220 9BB2     		uxth	r3, r3
 591 0222 6385     		strh	r3, [r4, #42]	@ movhi
 386:Drivers/STM32F4xx_HAL_Driver/Src/stm32f4xx_hal_i2s_ex.c ****           {
 592              		.loc 1 386 0
 593 0224 8B68     		ldr	r3, [r1, #8]
 594 0226 1907     		lsls	r1, r3, #28
 595 0228 0DD5     		bpl	.L43
 386:Drivers/STM32F4xx_HAL_Driver/Src/stm32f4xx_hal_i2s_ex.c ****           {
 596              		.loc 1 386 0 is_stmt 0 discriminator 5
 597 022a B7F5807F 		cmp	r7, #256
 598 022e 0AD1     		bne	.L43
 599              	.LBB13:
 389:Drivers/STM32F4xx_HAL_Driver/Src/stm32f4xx_hal_i2s_ex.c **** 
 600              		.loc 1 389 0 is_stmt 1
 601 0230 0490     		str	r0, [sp, #16]
 602 0232 9368     		ldr	r3, [r2, #8]
 603 0234 0493     		str	r3, [sp, #16]
 604              	.LBE13:
 392:Drivers/STM32F4xx_HAL_Driver/Src/stm32f4xx_hal_i2s_ex.c **** 
 605              		.loc 1 392 0
 606 0236 0125     		movs	r5, #1
 607              	.LBB14:
 389:Drivers/STM32F4xx_HAL_Driver/Src/stm32f4xx_hal_i2s_ex.c **** 
 608              		.loc 1 389 0
 609 0238 049B     		ldr	r3, [sp, #16]
 610              	.LBE14:
 392:Drivers/STM32F4xx_HAL_Driver/Src/stm32f4xx_hal_i2s_ex.c **** 
 611              		.loc 1 392 0
 612 023a 84F84150 		strb	r5, [r4, #65]
 395:Drivers/STM32F4xx_HAL_Driver/Src/stm32f4xx_hal_i2s_ex.c **** 
 613              		.loc 1 395 0
 614 023e 84F84000 		strb	r0, [r4, #64]
 615 0242 74E7     		b	.L83
 616              	.LVL47:
 617              	.L58:
 618 0244 A846     		mov	r8, r5
ARM GAS  /tmp/ccVZ1tTs.s 			page 34


 619              	.LVL48:
 620              	.L43:
 404:Drivers/STM32F4xx_HAL_Driver/Src/stm32f4xx_hal_i2s_ex.c ****         {
 621              		.loc 1 404 0
 622 0246 638E     		ldrh	r3, [r4, #50]
 623 0248 9BB2     		uxth	r3, r3
 624 024a E3B1     		cbz	r3, .L46
 407:Drivers/STM32F4xx_HAL_Driver/Src/stm32f4xx_hal_i2s_ex.c ****           {
 625              		.loc 1 407 0
 626 024c 0023     		movs	r3, #0
 627 024e 0E9A     		ldr	r2, [sp, #56]
 628 0250 0121     		movs	r1, #1
 629 0252 2046     		mov	r0, r4
 630 0254 FFF7FEFF 		bl	I2SEx_FullDuplexWaitFlagStateUntilTimeout.constprop.5
 631              	.LVL49:
 632 0258 0028     		cmp	r0, #0
 633 025a 7FF449AF 		bne	.L82
 415:Drivers/STM32F4xx_HAL_Driver/Src/stm32f4xx_hal_i2s_ex.c ****           hi2s->RxXferCount--;
 634              		.loc 1 415 0
 635 025e 2268     		ldr	r2, [r4]
 636 0260 D368     		ldr	r3, [r2, #12]
 637 0262 3380     		strh	r3, [r6]	@ movhi
 416:Drivers/STM32F4xx_HAL_Driver/Src/stm32f4xx_hal_i2s_ex.c **** 
 638              		.loc 1 416 0
 639 0264 638E     		ldrh	r3, [r4, #50]
 640 0266 013B     		subs	r3, r3, #1
 641 0268 9BB2     		uxth	r3, r3
 642 026a 6386     		strh	r3, [r4, #50]	@ movhi
 419:Drivers/STM32F4xx_HAL_Driver/Src/stm32f4xx_hal_i2s_ex.c ****           {
 643              		.loc 1 419 0
 644 026c 9368     		ldr	r3, [r2, #8]
 645 026e 5B06     		lsls	r3, r3, #25
 415:Drivers/STM32F4xx_HAL_Driver/Src/stm32f4xx_hal_i2s_ex.c ****           hi2s->RxXferCount--;
 646              		.loc 1 415 0
 647 0270 06F10201 		add	r1, r6, #2
 648              	.LVL50:
 419:Drivers/STM32F4xx_HAL_Driver/Src/stm32f4xx_hal_i2s_ex.c ****           {
 649              		.loc 1 419 0
 650 0274 06D5     		bpl	.L60
 651              	.LBB15:
 422:Drivers/STM32F4xx_HAL_Driver/Src/stm32f4xx_hal_i2s_ex.c **** 
 652              		.loc 1 422 0
 653 0276 0590     		str	r0, [sp, #20]
 654 0278 D368     		ldr	r3, [r2, #12]
 655 027a 0593     		str	r3, [sp, #20]
 656 027c 9368     		ldr	r3, [r2, #8]
 657 027e 0593     		str	r3, [sp, #20]
 658 0280 059B     		ldr	r3, [sp, #20]
 659 0282 7EE7     		b	.L80
 660              	.L60:
 661              	.LBE15:
 415:Drivers/STM32F4xx_HAL_Driver/Src/stm32f4xx_hal_i2s_ex.c ****           hi2s->RxXferCount--;
 662              		.loc 1 415 0
 663 0284 0E46     		mov	r6, r1
 664              	.LVL51:
 665              	.L46:
 666 0286 4546     		mov	r5, r8
ARM GAS  /tmp/ccVZ1tTs.s 			page 35


 667 0288 AAE7     		b	.L42
 668              	.LVL52:
 669              	.L52:
 222:Drivers/STM32F4xx_HAL_Driver/Src/stm32f4xx_hal_i2s_ex.c ****   }
 670              		.loc 1 222 0
 671 028a 0125     		movs	r5, #1
 672 028c CBE6     		b	.L24
 673              	.L85:
 674 028e 00BF     		.align	2
 675              	.L84:
 676 0290 00340040 		.word	1073755136
 677 0294 00380040 		.word	1073756160
 678              		.cfi_endproc
 679              	.LFE126:
 681              		.section	.text.HAL_I2SEx_TransmitReceive_DMA,"ax",%progbits
 682              		.align	1
 683              		.global	HAL_I2SEx_TransmitReceive_DMA
 684              		.syntax unified
 685              		.thumb
 686              		.thumb_func
 687              		.fpu fpv4-sp-d16
 689              	HAL_I2SEx_TransmitReceive_DMA:
 690              	.LFB128:
 627:Drivers/STM32F4xx_HAL_Driver/Src/stm32f4xx_hal_i2s_ex.c ****   uint32_t *tmp = NULL;
 691              		.loc 1 627 0
 692              		.cfi_startproc
 693              		@ args = 0, pretend = 0, frame = 8
 694              		@ frame_needed = 0, uses_anonymous_args = 0
 695              	.LVL53:
 696 0000 2DE9F341 		push	{r0, r1, r4, r5, r6, r7, r8, lr}
 697              	.LCFI5:
 698              		.cfi_def_cfa_offset 32
 699              		.cfi_offset 4, -24
 700              		.cfi_offset 5, -20
 701              		.cfi_offset 6, -16
 702              		.cfi_offset 7, -12
 703              		.cfi_offset 8, -8
 704              		.cfi_offset 14, -4
 627:Drivers/STM32F4xx_HAL_Driver/Src/stm32f4xx_hal_i2s_ex.c ****   uint32_t *tmp = NULL;
 705              		.loc 1 627 0
 706 0004 0446     		mov	r4, r0
 707 0006 1546     		mov	r5, r2
 631:Drivers/STM32F4xx_HAL_Driver/Src/stm32f4xx_hal_i2s_ex.c ****   {
 708              		.loc 1 631 0
 709 0008 0E46     		mov	r6, r1
 710 000a 0029     		cmp	r1, #0
 711 000c 00F0AA80 		beq	.L106
 631:Drivers/STM32F4xx_HAL_Driver/Src/stm32f4xx_hal_i2s_ex.c ****   {
 712              		.loc 1 631 0 is_stmt 0 discriminator 1
 713 0010 002A     		cmp	r2, #0
 714 0012 00F0A780 		beq	.L106
 631:Drivers/STM32F4xx_HAL_Driver/Src/stm32f4xx_hal_i2s_ex.c ****   {
 715              		.loc 1 631 0 discriminator 2
 716 0016 002B     		cmp	r3, #0
 717 0018 00F0A480 		beq	.L106
 636:Drivers/STM32F4xx_HAL_Driver/Src/stm32f4xx_hal_i2s_ex.c ****   {
 718              		.loc 1 636 0 is_stmt 1
ARM GAS  /tmp/ccVZ1tTs.s 			page 36


 719 001c 90F84120 		ldrb	r2, [r0, #65]	@ zero_extendqisi2
 720              	.LVL54:
 721 0020 012A     		cmp	r2, #1
 722 0022 03D0     		beq	.L88
 723              	.LVL55:
 724              	.L92:
 753:Drivers/STM32F4xx_HAL_Driver/Src/stm32f4xx_hal_i2s_ex.c ****   }
 725              		.loc 1 753 0
 726 0024 0220     		movs	r0, #2
 727              	.LVL56:
 728              	.L87:
 755:Drivers/STM32F4xx_HAL_Driver/Src/stm32f4xx_hal_i2s_ex.c **** 
 729              		.loc 1 755 0
 730 0026 02B0     		add	sp, sp, #8
 731              	.LCFI6:
 732              		.cfi_remember_state
 733              		.cfi_def_cfa_offset 24
 734              		@ sp needed
 735 0028 BDE8F081 		pop	{r4, r5, r6, r7, r8, pc}
 736              	.LVL57:
 737              	.L88:
 738              	.LCFI7:
 739              		.cfi_restore_state
 638:Drivers/STM32F4xx_HAL_Driver/Src/stm32f4xx_hal_i2s_ex.c ****     hi2s->pRxBuffPtr = pRxData;
 740              		.loc 1 638 0
 741 002c 6162     		str	r1, [r4, #36]
 641:Drivers/STM32F4xx_HAL_Driver/Src/stm32f4xx_hal_i2s_ex.c ****     /* Check the Data format: When a 16-bit data frame or a 16-bit data frame extended
 742              		.loc 1 641 0
 743 002e 0168     		ldr	r1, [r0]
 744              	.LVL58:
 639:Drivers/STM32F4xx_HAL_Driver/Src/stm32f4xx_hal_i2s_ex.c **** 
 745              		.loc 1 639 0
 746 0030 C562     		str	r5, [r0, #44]
 641:Drivers/STM32F4xx_HAL_Driver/Src/stm32f4xx_hal_i2s_ex.c ****     /* Check the Data format: When a 16-bit data frame or a 16-bit data frame extended
 747              		.loc 1 641 0
 748 0032 CA69     		ldr	r2, [r1, #28]
 749 0034 02F00702 		and	r2, r2, #7
 750              	.LVL59:
 646:Drivers/STM32F4xx_HAL_Driver/Src/stm32f4xx_hal_i2s_ex.c ****     {
 751              		.loc 1 646 0
 752 0038 032A     		cmp	r2, #3
 753 003a 01D0     		beq	.L89
 646:Drivers/STM32F4xx_HAL_Driver/Src/stm32f4xx_hal_i2s_ex.c ****     {
 754              		.loc 1 646 0 is_stmt 0 discriminator 1
 755 003c 052A     		cmp	r2, #5
 756 003e 01D1     		bne	.L90
 757              	.L89:
 648:Drivers/STM32F4xx_HAL_Driver/Src/stm32f4xx_hal_i2s_ex.c ****       hi2s->TxXferCount = (Size << 1U);
 758              		.loc 1 648 0 is_stmt 1
 759 0040 5B00     		lsls	r3, r3, #1
 760              	.LVL60:
 761 0042 9BB2     		uxth	r3, r3
 762              	.L90:
 655:Drivers/STM32F4xx_HAL_Driver/Src/stm32f4xx_hal_i2s_ex.c ****       hi2s->TxXferCount = Size;
 763              		.loc 1 655 0
 764 0044 2385     		strh	r3, [r4, #40]	@ movhi
 656:Drivers/STM32F4xx_HAL_Driver/Src/stm32f4xx_hal_i2s_ex.c ****       hi2s->RxXferSize  = Size;
ARM GAS  /tmp/ccVZ1tTs.s 			page 37


 765              		.loc 1 656 0
 766 0046 6385     		strh	r3, [r4, #42]	@ movhi
 657:Drivers/STM32F4xx_HAL_Driver/Src/stm32f4xx_hal_i2s_ex.c ****       hi2s->RxXferCount = Size;
 767              		.loc 1 657 0
 768 0048 2386     		strh	r3, [r4, #48]	@ movhi
 658:Drivers/STM32F4xx_HAL_Driver/Src/stm32f4xx_hal_i2s_ex.c ****     }
 769              		.loc 1 658 0
 770 004a 6386     		strh	r3, [r4, #50]	@ movhi
 662:Drivers/STM32F4xx_HAL_Driver/Src/stm32f4xx_hal_i2s_ex.c **** 
 771              		.loc 1 662 0
 772 004c 94F84030 		ldrb	r3, [r4, #64]	@ zero_extendqisi2
 773 0050 012B     		cmp	r3, #1
 774 0052 E7D0     		beq	.L92
 662:Drivers/STM32F4xx_HAL_Driver/Src/stm32f4xx_hal_i2s_ex.c **** 
 775              		.loc 1 662 0 is_stmt 0 discriminator 2
 776 0054 0123     		movs	r3, #1
 777 0056 84F84030 		strb	r3, [r4, #64]
 668:Drivers/STM32F4xx_HAL_Driver/Src/stm32f4xx_hal_i2s_ex.c **** 
 778              		.loc 1 668 0 is_stmt 1 discriminator 2
 779 005a D4F83CC0 		ldr	ip, [r4, #60]
 677:Drivers/STM32F4xx_HAL_Driver/Src/stm32f4xx_hal_i2s_ex.c **** 
 780              		.loc 1 677 0 discriminator 2
 781 005e A06B     		ldr	r0, [r4, #56]
 782              	.LVL61:
 668:Drivers/STM32F4xx_HAL_Driver/Src/stm32f4xx_hal_i2s_ex.c **** 
 783              		.loc 1 668 0 discriminator 2
 784 0060 DFF814E1 		ldr	lr, .L120+16
 671:Drivers/STM32F4xx_HAL_Driver/Src/stm32f4xx_hal_i2s_ex.c **** 
 785              		.loc 1 671 0 discriminator 2
 786 0064 404F     		ldr	r7, .L120
 787 0066 DFF80C81 		ldr	r8, .L120+12
 665:Drivers/STM32F4xx_HAL_Driver/Src/stm32f4xx_hal_i2s_ex.c **** 
 788              		.loc 1 665 0 discriminator 2
 789 006a 0523     		movs	r3, #5
 664:Drivers/STM32F4xx_HAL_Driver/Src/stm32f4xx_hal_i2s_ex.c ****     hi2s->State     = HAL_I2S_STATE_BUSY_TX_RX;
 790              		.loc 1 664 0 discriminator 2
 791 006c 0022     		movs	r2, #0
 792              	.LVL62:
 793 006e 6264     		str	r2, [r4, #68]
 665:Drivers/STM32F4xx_HAL_Driver/Src/stm32f4xx_hal_i2s_ex.c **** 
 794              		.loc 1 665 0 discriminator 2
 795 0070 84F84130 		strb	r3, [r4, #65]
 674:Drivers/STM32F4xx_HAL_Driver/Src/stm32f4xx_hal_i2s_ex.c **** 
 796              		.loc 1 674 0 discriminator 2
 797 0074 3D4B     		ldr	r3, .L120+4
 798 0076 CCF84C30 		str	r3, [ip, #76]
 668:Drivers/STM32F4xx_HAL_Driver/Src/stm32f4xx_hal_i2s_ex.c **** 
 799              		.loc 1 668 0 discriminator 2
 800 007a CCF840E0 		str	lr, [ip, #64]
 671:Drivers/STM32F4xx_HAL_Driver/Src/stm32f4xx_hal_i2s_ex.c **** 
 801              		.loc 1 671 0 discriminator 2
 802 007e CCF83C70 		str	r7, [ip, #60]
 683:Drivers/STM32F4xx_HAL_Driver/Src/stm32f4xx_hal_i2s_ex.c **** 
 803              		.loc 1 683 0 discriminator 2
 804 0082 C364     		str	r3, [r0, #76]
 685:Drivers/STM32F4xx_HAL_Driver/Src/stm32f4xx_hal_i2s_ex.c ****     /* Check if the I2S_MODE_MASTER_TX or I2S_MODE_SLAVE_TX Mode is selected */
 805              		.loc 1 685 0 discriminator 2
ARM GAS  /tmp/ccVZ1tTs.s 			page 38


 806 0084 CB69     		ldr	r3, [r1, #28]
 807              	.LVL63:
 687:Drivers/STM32F4xx_HAL_Driver/Src/stm32f4xx_hal_i2s_ex.c ****     {
 808              		.loc 1 687 0 discriminator 2
 809 0086 13F4807F 		tst	r3, #256
 680:Drivers/STM32F4xx_HAL_Driver/Src/stm32f4xx_hal_i2s_ex.c **** 
 810              		.loc 1 680 0 discriminator 2
 811 008a C0E90F7E 		strd	r7, lr, [r0, #60]
 687:Drivers/STM32F4xx_HAL_Driver/Src/stm32f4xx_hal_i2s_ex.c ****     {
 812              		.loc 1 687 0 discriminator 2
 813 008e 33D1     		bne	.L93
 814              	.LVL64:
 691:Drivers/STM32F4xx_HAL_Driver/Src/stm32f4xx_hal_i2s_ex.c **** 
 815              		.loc 1 691 0
 816 0090 374F     		ldr	r7, .L120+8
 817 0092 238E     		ldrh	r3, [r4, #48]
 818              	.LVL65:
 819 0094 4145     		cmp	r1, r8
 820 0096 0CBF     		ite	eq
 821 0098 3946     		moveq	r1, r7
 822 009a 4FF04021 		movne	r1, #1073758208
 823 009e 2A46     		mov	r2, r5
 824 00a0 0C31     		adds	r1, r1, #12
 825 00a2 6046     		mov	r0, ip
 826 00a4 FFF7FEFF 		bl	HAL_DMA_Start_IT
 827              	.LVL66:
 694:Drivers/STM32F4xx_HAL_Driver/Src/stm32f4xx_hal_i2s_ex.c **** 
 828              		.loc 1 694 0
 829 00a8 2268     		ldr	r2, [r4]
 698:Drivers/STM32F4xx_HAL_Driver/Src/stm32f4xx_hal_i2s_ex.c **** 
 830              		.loc 1 698 0
 831 00aa A06B     		ldr	r0, [r4, #56]
 694:Drivers/STM32F4xx_HAL_Driver/Src/stm32f4xx_hal_i2s_ex.c **** 
 832              		.loc 1 694 0
 833 00ac 4245     		cmp	r2, r8
 834 00ae 0CBF     		ite	eq
 835 00b0 3946     		moveq	r1, r7
 836 00b2 4FF04021 		movne	r1, #1073758208
 698:Drivers/STM32F4xx_HAL_Driver/Src/stm32f4xx_hal_i2s_ex.c **** 
 837              		.loc 1 698 0
 838 00b6 0C32     		adds	r2, r2, #12
 694:Drivers/STM32F4xx_HAL_Driver/Src/stm32f4xx_hal_i2s_ex.c **** 
 839              		.loc 1 694 0
 840 00b8 4B68     		ldr	r3, [r1, #4]
 841 00ba 43F00103 		orr	r3, r3, #1
 842 00be 4B60     		str	r3, [r1, #4]
 843              	.LVL67:
 698:Drivers/STM32F4xx_HAL_Driver/Src/stm32f4xx_hal_i2s_ex.c **** 
 844              		.loc 1 698 0
 845 00c0 238D     		ldrh	r3, [r4, #40]
 846 00c2 3146     		mov	r1, r6
 847 00c4 FFF7FEFF 		bl	HAL_DMA_Start_IT
 848              	.LVL68:
 701:Drivers/STM32F4xx_HAL_Driver/Src/stm32f4xx_hal_i2s_ex.c **** 
 849              		.loc 1 701 0
 850 00c8 2368     		ldr	r3, [r4]
 851 00ca 5A68     		ldr	r2, [r3, #4]
ARM GAS  /tmp/ccVZ1tTs.s 			page 39


 852 00cc 42F00202 		orr	r2, r2, #2
 853 00d0 5A60     		str	r2, [r3, #4]
 704:Drivers/STM32F4xx_HAL_Driver/Src/stm32f4xx_hal_i2s_ex.c ****       {
 854              		.loc 1 704 0
 855 00d2 DA69     		ldr	r2, [r3, #28]
 856 00d4 5105     		lsls	r1, r2, #21
 857 00d6 0BD4     		bmi	.L97
 707:Drivers/STM32F4xx_HAL_Driver/Src/stm32f4xx_hal_i2s_ex.c **** 
 858              		.loc 1 707 0
 859 00d8 4345     		cmp	r3, r8
 860 00da 18BF     		it	ne
 861 00dc 4FF04027 		movne	r7, #1073758208
 862              	.LVL69:
 863              	.L119:
 740:Drivers/STM32F4xx_HAL_Driver/Src/stm32f4xx_hal_i2s_ex.c ****         /* Enable I2S peripheral before the I2Sext */
 864              		.loc 1 740 0
 865 00e0 FA69     		ldr	r2, [r7, #28]
 866 00e2 42F48062 		orr	r2, r2, #1024
 867 00e6 FA61     		str	r2, [r7, #28]
 742:Drivers/STM32F4xx_HAL_Driver/Src/stm32f4xx_hal_i2s_ex.c ****       }
 868              		.loc 1 742 0
 869 00e8 DA69     		ldr	r2, [r3, #28]
 870 00ea 42F48062 		orr	r2, r2, #1024
 871 00ee DA61     		str	r2, [r3, #28]
 872              	.L97:
 747:Drivers/STM32F4xx_HAL_Driver/Src/stm32f4xx_hal_i2s_ex.c **** 
 873              		.loc 1 747 0
 874 00f0 0020     		movs	r0, #0
 875 00f2 84F84000 		strb	r0, [r4, #64]
 749:Drivers/STM32F4xx_HAL_Driver/Src/stm32f4xx_hal_i2s_ex.c ****   }
 876              		.loc 1 749 0
 877 00f6 96E7     		b	.L87
 878              	.LVL70:
 879              	.L93:
 716:Drivers/STM32F4xx_HAL_Driver/Src/stm32f4xx_hal_i2s_ex.c ****       {
 880              		.loc 1 716 0
 881 00f8 CB69     		ldr	r3, [r1, #28]
 882              	.LVL71:
 883 00fa 03F44073 		and	r3, r3, #768
 884 00fe B3F5407F 		cmp	r3, #768
 885 0102 05D1     		bne	.L99
 886              	.LBB16:
 720:Drivers/STM32F4xx_HAL_Driver/Src/stm32f4xx_hal_i2s_ex.c ****       }
 887              		.loc 1 720 0
 888 0104 0192     		str	r2, [sp, #4]
 889 0106 CB68     		ldr	r3, [r1, #12]
 890 0108 0193     		str	r3, [sp, #4]
 891 010a 8B68     		ldr	r3, [r1, #8]
 892 010c 0193     		str	r3, [sp, #4]
 893 010e 019B     		ldr	r3, [sp, #4]
 894              	.L99:
 895              	.LVL72:
 896              	.LBE16:
 724:Drivers/STM32F4xx_HAL_Driver/Src/stm32f4xx_hal_i2s_ex.c **** 
 897              		.loc 1 724 0
 898 0110 174F     		ldr	r7, .L120+8
 899 0112 238D     		ldrh	r3, [r4, #40]
ARM GAS  /tmp/ccVZ1tTs.s 			page 40


 900 0114 4145     		cmp	r1, r8
 901 0116 0CBF     		ite	eq
 902 0118 3946     		moveq	r1, r7
 903 011a 4FF04021 		movne	r1, #1073758208
 904 011e 01F10C02 		add	r2, r1, #12
 905 0122 3146     		mov	r1, r6
 906 0124 FFF7FEFF 		bl	HAL_DMA_Start_IT
 907              	.LVL73:
 727:Drivers/STM32F4xx_HAL_Driver/Src/stm32f4xx_hal_i2s_ex.c **** 
 908              		.loc 1 727 0
 909 0128 124E     		ldr	r6, .L120+12
 910              	.LVL74:
 911 012a 2168     		ldr	r1, [r4]
 731:Drivers/STM32F4xx_HAL_Driver/Src/stm32f4xx_hal_i2s_ex.c **** 
 912              		.loc 1 731 0
 913 012c E06B     		ldr	r0, [r4, #60]
 727:Drivers/STM32F4xx_HAL_Driver/Src/stm32f4xx_hal_i2s_ex.c **** 
 914              		.loc 1 727 0
 915 012e B142     		cmp	r1, r6
 916 0130 0CBF     		ite	eq
 917 0132 3A46     		moveq	r2, r7
 918 0134 4FF04022 		movne	r2, #1073758208
 731:Drivers/STM32F4xx_HAL_Driver/Src/stm32f4xx_hal_i2s_ex.c **** 
 919              		.loc 1 731 0
 920 0138 0C31     		adds	r1, r1, #12
 727:Drivers/STM32F4xx_HAL_Driver/Src/stm32f4xx_hal_i2s_ex.c **** 
 921              		.loc 1 727 0
 922 013a 5368     		ldr	r3, [r2, #4]
 923 013c 43F00203 		orr	r3, r3, #2
 924 0140 5360     		str	r3, [r2, #4]
 925              	.LVL75:
 731:Drivers/STM32F4xx_HAL_Driver/Src/stm32f4xx_hal_i2s_ex.c **** 
 926              		.loc 1 731 0
 927 0142 238E     		ldrh	r3, [r4, #48]
 928 0144 2A46     		mov	r2, r5
 929 0146 FFF7FEFF 		bl	HAL_DMA_Start_IT
 930              	.LVL76:
 734:Drivers/STM32F4xx_HAL_Driver/Src/stm32f4xx_hal_i2s_ex.c **** 
 931              		.loc 1 734 0
 932 014a 2368     		ldr	r3, [r4]
 933 014c 5A68     		ldr	r2, [r3, #4]
 934 014e 42F00102 		orr	r2, r2, #1
 935 0152 5A60     		str	r2, [r3, #4]
 737:Drivers/STM32F4xx_HAL_Driver/Src/stm32f4xx_hal_i2s_ex.c ****       {
 936              		.loc 1 737 0
 937 0154 DA69     		ldr	r2, [r3, #28]
 938 0156 5205     		lsls	r2, r2, #21
 939 0158 CAD4     		bmi	.L97
 740:Drivers/STM32F4xx_HAL_Driver/Src/stm32f4xx_hal_i2s_ex.c ****         /* Enable I2S peripheral before the I2Sext */
 940              		.loc 1 740 0
 941 015a B342     		cmp	r3, r6
 942 015c 18BF     		it	ne
 943 015e 4FF04027 		movne	r7, #1073758208
 944 0162 BDE7     		b	.L119
 945              	.LVL77:
 946              	.L106:
 633:Drivers/STM32F4xx_HAL_Driver/Src/stm32f4xx_hal_i2s_ex.c ****   }
ARM GAS  /tmp/ccVZ1tTs.s 			page 41


 947              		.loc 1 633 0
 948 0164 0120     		movs	r0, #1
 949              	.LVL78:
 950 0166 5EE7     		b	.L87
 951              	.L121:
 952              		.align	2
 953              	.L120:
 954 0168 00000000 		.word	I2SEx_TxRxDMACplt
 955 016c 00000000 		.word	I2SEx_TxRxDMAError
 956 0170 00340040 		.word	1073755136
 957 0174 00380040 		.word	1073756160
 958 0178 00000000 		.word	I2SEx_TxRxDMAHalfCplt
 959              		.cfi_endproc
 960              	.LFE128:
 962              		.section	.text.HAL_I2SEx_TxRxHalfCpltCallback,"ax",%progbits
 963              		.align	1
 964              		.weak	HAL_I2SEx_TxRxHalfCpltCallback
 965              		.syntax unified
 966              		.thumb
 967              		.thumb_func
 968              		.fpu fpv4-sp-d16
 970              	HAL_I2SEx_TxRxHalfCpltCallback:
 971              	.LFB130:
 888:Drivers/STM32F4xx_HAL_Driver/Src/stm32f4xx_hal_i2s_ex.c ****   /* Prevent unused argument(s) compilation warning */
 972              		.loc 1 888 0
 973              		.cfi_startproc
 974              		@ args = 0, pretend = 0, frame = 0
 975              		@ frame_needed = 0, uses_anonymous_args = 0
 976              		@ link register save eliminated.
 977              	.LVL79:
 895:Drivers/STM32F4xx_HAL_Driver/Src/stm32f4xx_hal_i2s_ex.c **** 
 978              		.loc 1 895 0
 979 0000 7047     		bx	lr
 980              		.cfi_endproc
 981              	.LFE130:
 983              		.section	.text.I2SEx_TxRxDMAHalfCplt,"ax",%progbits
 984              		.align	1
 985              		.syntax unified
 986              		.thumb
 987              		.thumb_func
 988              		.fpu fpv4-sp-d16
 990              	I2SEx_TxRxDMAHalfCplt:
 991              	.LFB132:
 931:Drivers/STM32F4xx_HAL_Driver/Src/stm32f4xx_hal_i2s_ex.c ****   I2S_HandleTypeDef* hi2s = (I2S_HandleTypeDef*)((DMA_HandleTypeDef*)hdma)->Parent;
 992              		.loc 1 931 0
 993              		.cfi_startproc
 994              		@ args = 0, pretend = 0, frame = 0
 995              		@ frame_needed = 0, uses_anonymous_args = 0
 996              	.LVL80:
 997 0000 08B5     		push	{r3, lr}
 998              	.LCFI8:
 999              		.cfi_def_cfa_offset 8
 1000              		.cfi_offset 3, -8
 1001              		.cfi_offset 14, -4
 934:Drivers/STM32F4xx_HAL_Driver/Src/stm32f4xx_hal_i2s_ex.c **** }
 1002              		.loc 1 934 0
 1003 0002 806B     		ldr	r0, [r0, #56]
ARM GAS  /tmp/ccVZ1tTs.s 			page 42


 1004              	.LVL81:
 1005 0004 FFF7FEFF 		bl	HAL_I2SEx_TxRxHalfCpltCallback
 1006              	.LVL82:
 935:Drivers/STM32F4xx_HAL_Driver/Src/stm32f4xx_hal_i2s_ex.c **** 
 1007              		.loc 1 935 0
 1008 0008 08BD     		pop	{r3, pc}
 1009              		.cfi_endproc
 1010              	.LFE132:
 1012              		.section	.text.HAL_I2SEx_TxRxCpltCallback,"ax",%progbits
 1013              		.align	1
 1014              		.weak	HAL_I2SEx_TxRxCpltCallback
 1015              		.syntax unified
 1016              		.thumb
 1017              		.thumb_func
 1018              		.fpu fpv4-sp-d16
 1020              	HAL_I2SEx_TxRxCpltCallback:
 1021              	.LFB141:
 1022              		.cfi_startproc
 1023              		@ args = 0, pretend = 0, frame = 0
 1024              		@ frame_needed = 0, uses_anonymous_args = 0
 1025              		@ link register save eliminated.
 1026 0000 7047     		bx	lr
 1027              		.cfi_endproc
 1028              	.LFE141:
 1030              		.section	.text.HAL_I2SEx_TransmitReceive_IT,"ax",%progbits
 1031              		.align	1
 1032              		.global	HAL_I2SEx_TransmitReceive_IT
 1033              		.syntax unified
 1034              		.thumb
 1035              		.thumb_func
 1036              		.fpu fpv4-sp-d16
 1038              	HAL_I2SEx_TransmitReceive_IT:
 1039              	.LFB127:
 471:Drivers/STM32F4xx_HAL_Driver/Src/stm32f4xx_hal_i2s_ex.c ****   uint32_t tmp1 = 0U;
 1040              		.loc 1 471 0
 1041              		.cfi_startproc
 1042              		@ args = 0, pretend = 0, frame = 0
 1043              		@ frame_needed = 0, uses_anonymous_args = 0
 1044              	.LVL83:
 471:Drivers/STM32F4xx_HAL_Driver/Src/stm32f4xx_hal_i2s_ex.c ****   uint32_t tmp1 = 0U;
 1045              		.loc 1 471 0
 1046 0000 38B5     		push	{r3, r4, r5, lr}
 1047              	.LCFI9:
 1048              		.cfi_def_cfa_offset 16
 1049              		.cfi_offset 3, -16
 1050              		.cfi_offset 4, -12
 1051              		.cfi_offset 5, -8
 1052              		.cfi_offset 14, -4
 471:Drivers/STM32F4xx_HAL_Driver/Src/stm32f4xx_hal_i2s_ex.c ****   uint32_t tmp1 = 0U;
 1053              		.loc 1 471 0
 1054 0002 0446     		mov	r4, r0
 474:Drivers/STM32F4xx_HAL_Driver/Src/stm32f4xx_hal_i2s_ex.c ****   {
 1055              		.loc 1 474 0
 1056 0004 90F84100 		ldrb	r0, [r0, #65]	@ zero_extendqisi2
 1057              	.LVL84:
 1058 0008 C0B2     		uxtb	r0, r0
 1059 000a 0128     		cmp	r0, #1
ARM GAS  /tmp/ccVZ1tTs.s 			page 43


 1060 000c 01D0     		beq	.L126
 1061              	.LVL85:
 1062              	.L131:
 606:Drivers/STM32F4xx_HAL_Driver/Src/stm32f4xx_hal_i2s_ex.c ****   }
 1063              		.loc 1 606 0
 1064 000e 0220     		movs	r0, #2
 1065              	.L127:
 608:Drivers/STM32F4xx_HAL_Driver/Src/stm32f4xx_hal_i2s_ex.c **** 
 1066              		.loc 1 608 0
 1067 0010 38BD     		pop	{r3, r4, r5, pc}
 1068              	.LVL86:
 1069              	.L126:
 476:Drivers/STM32F4xx_HAL_Driver/Src/stm32f4xx_hal_i2s_ex.c ****     {
 1070              		.loc 1 476 0
 1071 0012 0029     		cmp	r1, #0
 1072 0014 FCD0     		beq	.L127
 476:Drivers/STM32F4xx_HAL_Driver/Src/stm32f4xx_hal_i2s_ex.c ****     {
 1073              		.loc 1 476 0 is_stmt 0 discriminator 1
 1074 0016 002A     		cmp	r2, #0
 1075 0018 FAD0     		beq	.L127
 476:Drivers/STM32F4xx_HAL_Driver/Src/stm32f4xx_hal_i2s_ex.c ****     {
 1076              		.loc 1 476 0 discriminator 2
 1077 001a 002B     		cmp	r3, #0
 1078 001c F8D0     		beq	.L127
 482:Drivers/STM32F4xx_HAL_Driver/Src/stm32f4xx_hal_i2s_ex.c **** 
 1079              		.loc 1 482 0 is_stmt 1
 1080 001e E262     		str	r2, [r4, #44]
 484:Drivers/STM32F4xx_HAL_Driver/Src/stm32f4xx_hal_i2s_ex.c ****     /* Check the Data format: When a 16-bit data frame or a 16-bit data frame extended
 1081              		.loc 1 484 0
 1082 0020 2268     		ldr	r2, [r4]
 1083              	.LVL87:
 481:Drivers/STM32F4xx_HAL_Driver/Src/stm32f4xx_hal_i2s_ex.c ****     hi2s->pRxBuffPtr = pRxData;
 1084              		.loc 1 481 0
 1085 0022 6162     		str	r1, [r4, #36]
 484:Drivers/STM32F4xx_HAL_Driver/Src/stm32f4xx_hal_i2s_ex.c ****     /* Check the Data format: When a 16-bit data frame or a 16-bit data frame extended
 1086              		.loc 1 484 0
 1087 0024 D169     		ldr	r1, [r2, #28]
 1088              	.LVL88:
 1089 0026 01F00701 		and	r1, r1, #7
 1090              	.LVL89:
 489:Drivers/STM32F4xx_HAL_Driver/Src/stm32f4xx_hal_i2s_ex.c ****     {
 1091              		.loc 1 489 0
 1092 002a 0329     		cmp	r1, #3
 1093 002c 01D0     		beq	.L128
 489:Drivers/STM32F4xx_HAL_Driver/Src/stm32f4xx_hal_i2s_ex.c ****     {
 1094              		.loc 1 489 0 is_stmt 0 discriminator 1
 1095 002e 0529     		cmp	r1, #5
 1096 0030 01D1     		bne	.L129
 1097              	.L128:
 491:Drivers/STM32F4xx_HAL_Driver/Src/stm32f4xx_hal_i2s_ex.c ****       hi2s->TxXferCount = (Size << 1U);
 1098              		.loc 1 491 0 is_stmt 1
 1099 0032 5B00     		lsls	r3, r3, #1
 1100              	.LVL90:
 1101 0034 9BB2     		uxth	r3, r3
 1102              	.L129:
 498:Drivers/STM32F4xx_HAL_Driver/Src/stm32f4xx_hal_i2s_ex.c ****       hi2s->TxXferCount = Size;
 1103              		.loc 1 498 0
ARM GAS  /tmp/ccVZ1tTs.s 			page 44


 1104 0036 2385     		strh	r3, [r4, #40]	@ movhi
 499:Drivers/STM32F4xx_HAL_Driver/Src/stm32f4xx_hal_i2s_ex.c ****       hi2s->RxXferSize  = Size;
 1105              		.loc 1 499 0
 1106 0038 6385     		strh	r3, [r4, #42]	@ movhi
 500:Drivers/STM32F4xx_HAL_Driver/Src/stm32f4xx_hal_i2s_ex.c ****       hi2s->RxXferCount = Size;
 1107              		.loc 1 500 0
 1108 003a 2386     		strh	r3, [r4, #48]	@ movhi
 501:Drivers/STM32F4xx_HAL_Driver/Src/stm32f4xx_hal_i2s_ex.c ****     }
 1109              		.loc 1 501 0
 1110 003c 6386     		strh	r3, [r4, #50]	@ movhi
 505:Drivers/STM32F4xx_HAL_Driver/Src/stm32f4xx_hal_i2s_ex.c **** 
 1111              		.loc 1 505 0
 1112 003e 94F84030 		ldrb	r3, [r4, #64]	@ zero_extendqisi2
 1113 0042 012B     		cmp	r3, #1
 1114 0044 E3D0     		beq	.L131
 507:Drivers/STM32F4xx_HAL_Driver/Src/stm32f4xx_hal_i2s_ex.c ****     hi2s->State     = HAL_I2S_STATE_BUSY_TX_RX;
 1115              		.loc 1 507 0 discriminator 2
 1116 0046 0023     		movs	r3, #0
 505:Drivers/STM32F4xx_HAL_Driver/Src/stm32f4xx_hal_i2s_ex.c **** 
 1117              		.loc 1 505 0 discriminator 2
 1118 0048 0120     		movs	r0, #1
 1119 004a 84F84000 		strb	r0, [r4, #64]
 507:Drivers/STM32F4xx_HAL_Driver/Src/stm32f4xx_hal_i2s_ex.c ****     hi2s->State     = HAL_I2S_STATE_BUSY_TX_RX;
 1120              		.loc 1 507 0 discriminator 2
 1121 004e 6364     		str	r3, [r4, #68]
 508:Drivers/STM32F4xx_HAL_Driver/Src/stm32f4xx_hal_i2s_ex.c **** 
 1122              		.loc 1 508 0 discriminator 2
 1123 0050 0523     		movs	r3, #5
 1124 0052 84F84130 		strb	r3, [r4, #65]
 510:Drivers/STM32F4xx_HAL_Driver/Src/stm32f4xx_hal_i2s_ex.c ****     /* Check if the I2S_MODE_MASTER_TX or I2S_MODE_SLAVE_TX Mode is selected */
 1125              		.loc 1 510 0 discriminator 2
 1126 0056 D369     		ldr	r3, [r2, #28]
 1127              	.LVL91:
 515:Drivers/STM32F4xx_HAL_Driver/Src/stm32f4xx_hal_i2s_ex.c **** 
 1128              		.loc 1 515 0 discriminator 2
 1129 0058 4149     		ldr	r1, .L166
 512:Drivers/STM32F4xx_HAL_Driver/Src/stm32f4xx_hal_i2s_ex.c ****     {
 1130              		.loc 1 512 0 discriminator 2
 1131 005a 13F4807F 		tst	r3, #256
 1132 005e 414B     		ldr	r3, .L166+4
 1133              	.LVL92:
 1134 0060 47D1     		bne	.L132
 515:Drivers/STM32F4xx_HAL_Driver/Src/stm32f4xx_hal_i2s_ex.c **** 
 1135              		.loc 1 515 0
 1136 0062 9A42     		cmp	r2, r3
 1137 0064 0CBF     		ite	eq
 1138 0066 0B46     		moveq	r3, r1
 1139 0068 4FF04023 		movne	r3, #1073758208
 1140 006c 5968     		ldr	r1, [r3, #4]
 1141 006e 41F06001 		orr	r1, r1, #96
 1142 0072 5960     		str	r1, [r3, #4]
 518:Drivers/STM32F4xx_HAL_Driver/Src/stm32f4xx_hal_i2s_ex.c **** 
 1143              		.loc 1 518 0
 1144 0074 5168     		ldr	r1, [r2, #4]
 1145 0076 41F0A001 		orr	r1, r1, #160
 1146 007a 5160     		str	r1, [r2, #4]
 521:Drivers/STM32F4xx_HAL_Driver/Src/stm32f4xx_hal_i2s_ex.c ****       {
ARM GAS  /tmp/ccVZ1tTs.s 			page 45


 1147              		.loc 1 521 0
 1148 007c D169     		ldr	r1, [r2, #28]
 1149 007e 4D05     		lsls	r5, r1, #21
 1150 0080 33D4     		bmi	.L135
 523:Drivers/STM32F4xx_HAL_Driver/Src/stm32f4xx_hal_i2s_ex.c ****         {
 1151              		.loc 1 523 0
 1152 0082 D169     		ldr	r1, [r2, #28]
 1153 0084 11F4407F 		tst	r1, #768
 1154 0088 20D1     		bne	.L143
 526:Drivers/STM32F4xx_HAL_Driver/Src/stm32f4xx_hal_i2s_ex.c ****           {
 1155              		.loc 1 526 0
 1156 008a 618D     		ldrh	r1, [r4, #42]
 1157 008c 89B2     		uxth	r1, r1
 1158 008e E9B1     		cbz	r1, .L143
 529:Drivers/STM32F4xx_HAL_Driver/Src/stm32f4xx_hal_i2s_ex.c ****             hi2s->TxXferCount--;
 1159              		.loc 1 529 0
 1160 0090 616A     		ldr	r1, [r4, #36]
 1161 0092 8D1C     		adds	r5, r1, #2
 1162 0094 0988     		ldrh	r1, [r1]
 1163 0096 6562     		str	r5, [r4, #36]
 1164              	.LVL93:
 1165 0098 D160     		str	r1, [r2, #12]
 530:Drivers/STM32F4xx_HAL_Driver/Src/stm32f4xx_hal_i2s_ex.c **** 
 1166              		.loc 1 530 0
 1167 009a 618D     		ldrh	r1, [r4, #42]
 1168 009c 0139     		subs	r1, r1, #1
 1169 009e 89B2     		uxth	r1, r1
 1170 00a0 6185     		strh	r1, [r4, #42]	@ movhi
 532:Drivers/STM32F4xx_HAL_Driver/Src/stm32f4xx_hal_i2s_ex.c ****             {
 1171              		.loc 1 532 0
 1172 00a2 618D     		ldrh	r1, [r4, #42]
 1173 00a4 89B2     		uxth	r1, r1
 1174 00a6 89B9     		cbnz	r1, .L143
 535:Drivers/STM32F4xx_HAL_Driver/Src/stm32f4xx_hal_i2s_ex.c **** 
 1175              		.loc 1 535 0
 1176 00a8 5168     		ldr	r1, [r2, #4]
 1177 00aa 21F0A001 		bic	r1, r1, #160
 1178 00ae 0904     		lsls	r1, r1, #16
 1179 00b0 090C     		lsrs	r1, r1, #16
 1180 00b2 5160     		str	r1, [r2, #4]
 537:Drivers/STM32F4xx_HAL_Driver/Src/stm32f4xx_hal_i2s_ex.c ****               {
 1181              		.loc 1 537 0
 1182 00b4 628E     		ldrh	r2, [r4, #50]
 1183 00b6 92B2     		uxth	r2, r2
 1184 00b8 42B9     		cbnz	r2, .L143
 540:Drivers/STM32F4xx_HAL_Driver/Src/stm32f4xx_hal_i2s_ex.c **** 
 1185              		.loc 1 540 0 discriminator 4
 1186 00ba 5A68     		ldr	r2, [r3, #4]
 1187 00bc 22F06002 		bic	r2, r2, #96
 1188 00c0 5A60     		str	r2, [r3, #4]
 1189              	.L165:
 586:Drivers/STM32F4xx_HAL_Driver/Src/stm32f4xx_hal_i2s_ex.c ****                 HAL_I2SEx_TxRxCpltCallback(hi2s);
 1190              		.loc 1 586 0
 1191 00c2 84F84100 		strb	r0, [r4, #65]
 587:Drivers/STM32F4xx_HAL_Driver/Src/stm32f4xx_hal_i2s_ex.c ****               }
 1192              		.loc 1 587 0
 1193 00c6 2046     		mov	r0, r4
ARM GAS  /tmp/ccVZ1tTs.s 			page 46


 1194 00c8 FFF7FEFF 		bl	HAL_I2SEx_TxRxCpltCallback
 1195              	.LVL94:
 1196              	.L143:
 593:Drivers/STM32F4xx_HAL_Driver/Src/stm32f4xx_hal_i2s_ex.c **** 
 1197              		.loc 1 593 0
 1198 00cc 2268     		ldr	r2, [r4]
 1199 00ce 2549     		ldr	r1, .L166+4
 1200 00d0 234B     		ldr	r3, .L166
 1201 00d2 8A42     		cmp	r2, r1
 1202 00d4 18BF     		it	ne
 1203 00d6 4FF04023 		movne	r3, #1073758208
 1204 00da D969     		ldr	r1, [r3, #28]
 1205 00dc 41F48061 		orr	r1, r1, #1024
 1206 00e0 D961     		str	r1, [r3, #28]
 596:Drivers/STM32F4xx_HAL_Driver/Src/stm32f4xx_hal_i2s_ex.c ****       }
 1207              		.loc 1 596 0
 1208 00e2 D369     		ldr	r3, [r2, #28]
 1209 00e4 43F48063 		orr	r3, r3, #1024
 1210 00e8 D361     		str	r3, [r2, #28]
 1211              	.L135:
 600:Drivers/STM32F4xx_HAL_Driver/Src/stm32f4xx_hal_i2s_ex.c **** 
 1212              		.loc 1 600 0
 1213 00ea 0020     		movs	r0, #0
 1214 00ec 84F84000 		strb	r0, [r4, #64]
 602:Drivers/STM32F4xx_HAL_Driver/Src/stm32f4xx_hal_i2s_ex.c ****   }
 1215              		.loc 1 602 0
 1216 00f0 8EE7     		b	.L127
 1217              	.LVL95:
 1218              	.L132:
 559:Drivers/STM32F4xx_HAL_Driver/Src/stm32f4xx_hal_i2s_ex.c **** 
 1219              		.loc 1 559 0
 1220 00f2 9A42     		cmp	r2, r3
 1221 00f4 0CBF     		ite	eq
 1222 00f6 0B46     		moveq	r3, r1
 1223 00f8 4FF04023 		movne	r3, #1073758208
 1224 00fc 5968     		ldr	r1, [r3, #4]
 1225 00fe 41F0A001 		orr	r1, r1, #160
 1226 0102 5960     		str	r1, [r3, #4]
 562:Drivers/STM32F4xx_HAL_Driver/Src/stm32f4xx_hal_i2s_ex.c **** 
 1227              		.loc 1 562 0
 1228 0104 5168     		ldr	r1, [r2, #4]
 1229 0106 41F06001 		orr	r1, r1, #96
 1230 010a 5160     		str	r1, [r2, #4]
 565:Drivers/STM32F4xx_HAL_Driver/Src/stm32f4xx_hal_i2s_ex.c ****       {
 1231              		.loc 1 565 0
 1232 010c D169     		ldr	r1, [r2, #28]
 1233 010e 4905     		lsls	r1, r1, #21
 1234 0110 EBD4     		bmi	.L135
 568:Drivers/STM32F4xx_HAL_Driver/Src/stm32f4xx_hal_i2s_ex.c ****         {
 1235              		.loc 1 568 0
 1236 0112 D169     		ldr	r1, [r2, #28]
 1237 0114 01F44071 		and	r1, r1, #768
 1238 0118 B1F5407F 		cmp	r1, #768
 1239 011c D6D1     		bne	.L143
 571:Drivers/STM32F4xx_HAL_Driver/Src/stm32f4xx_hal_i2s_ex.c ****           {
 1240              		.loc 1 571 0
 1241 011e 618D     		ldrh	r1, [r4, #42]
ARM GAS  /tmp/ccVZ1tTs.s 			page 47


 1242 0120 89B2     		uxth	r1, r1
 1243 0122 0029     		cmp	r1, #0
 1244 0124 D2D0     		beq	.L143
 574:Drivers/STM32F4xx_HAL_Driver/Src/stm32f4xx_hal_i2s_ex.c ****             hi2s->TxXferCount--;
 1245              		.loc 1 574 0
 1246 0126 616A     		ldr	r1, [r4, #36]
 1247 0128 8D1C     		adds	r5, r1, #2
 1248 012a 0988     		ldrh	r1, [r1]
 1249 012c 6562     		str	r5, [r4, #36]
 1250              	.LVL96:
 1251 012e D960     		str	r1, [r3, #12]
 575:Drivers/STM32F4xx_HAL_Driver/Src/stm32f4xx_hal_i2s_ex.c **** 
 1252              		.loc 1 575 0
 1253 0130 618D     		ldrh	r1, [r4, #42]
 1254 0132 0139     		subs	r1, r1, #1
 1255 0134 89B2     		uxth	r1, r1
 1256 0136 6185     		strh	r1, [r4, #42]	@ movhi
 577:Drivers/STM32F4xx_HAL_Driver/Src/stm32f4xx_hal_i2s_ex.c ****             {
 1257              		.loc 1 577 0
 1258 0138 618D     		ldrh	r1, [r4, #42]
 1259 013a 89B2     		uxth	r1, r1
 1260 013c 0029     		cmp	r1, #0
 1261 013e C5D1     		bne	.L143
 580:Drivers/STM32F4xx_HAL_Driver/Src/stm32f4xx_hal_i2s_ex.c ****               if(hi2s->RxXferCount == 0U)
 1262              		.loc 1 580 0 discriminator 4
 1263 0140 5968     		ldr	r1, [r3, #4]
 1264 0142 21F0A001 		bic	r1, r1, #160
 1265 0146 5960     		str	r1, [r3, #4]
 581:Drivers/STM32F4xx_HAL_Driver/Src/stm32f4xx_hal_i2s_ex.c ****               {
 1266              		.loc 1 581 0 discriminator 4
 1267 0148 638E     		ldrh	r3, [r4, #50]
 1268 014a 9BB2     		uxth	r3, r3
 1269 014c 002B     		cmp	r3, #0
 1270 014e BDD1     		bne	.L143
 584:Drivers/STM32F4xx_HAL_Driver/Src/stm32f4xx_hal_i2s_ex.c **** 
 1271              		.loc 1 584 0
 1272 0150 5368     		ldr	r3, [r2, #4]
 1273 0152 23F06003 		bic	r3, r3, #96
 1274 0156 1B04     		lsls	r3, r3, #16
 1275 0158 1B0C     		lsrs	r3, r3, #16
 1276 015a 5360     		str	r3, [r2, #4]
 1277 015c B1E7     		b	.L165
 1278              	.L167:
 1279 015e 00BF     		.align	2
 1280              	.L166:
 1281 0160 00340040 		.word	1073755136
 1282 0164 00380040 		.word	1073756160
 1283              		.cfi_endproc
 1284              	.LFE127:
 1286              		.section	.text.I2SEx_TxRxDMACplt,"ax",%progbits
 1287              		.align	1
 1288              		.syntax unified
 1289              		.thumb
 1290              		.thumb_func
 1291              		.fpu fpv4-sp-d16
 1293              	I2SEx_TxRxDMACplt:
 1294              	.LFB133:
ARM GAS  /tmp/ccVZ1tTs.s 			page 48


 944:Drivers/STM32F4xx_HAL_Driver/Src/stm32f4xx_hal_i2s_ex.c ****   I2S_HandleTypeDef* hi2s = (I2S_HandleTypeDef*)((DMA_HandleTypeDef*)hdma)->Parent;
 1295              		.loc 1 944 0
 1296              		.cfi_startproc
 1297              		@ args = 0, pretend = 0, frame = 0
 1298              		@ frame_needed = 0, uses_anonymous_args = 0
 1299              	.LVL97:
 1300 0000 38B5     		push	{r3, r4, r5, lr}
 1301              	.LCFI10:
 1302              		.cfi_def_cfa_offset 16
 1303              		.cfi_offset 3, -16
 1304              		.cfi_offset 4, -12
 1305              		.cfi_offset 5, -8
 1306              		.cfi_offset 14, -4
 948:Drivers/STM32F4xx_HAL_Driver/Src/stm32f4xx_hal_i2s_ex.c ****   {
 1307              		.loc 1 948 0
 1308 0002 0368     		ldr	r3, [r0]
 1309 0004 1B68     		ldr	r3, [r3]
 1310 0006 DB05     		lsls	r3, r3, #23
 944:Drivers/STM32F4xx_HAL_Driver/Src/stm32f4xx_hal_i2s_ex.c ****   I2S_HandleTypeDef* hi2s = (I2S_HandleTypeDef*)((DMA_HandleTypeDef*)hdma)->Parent;
 1311              		.loc 1 944 0
 1312 0008 0546     		mov	r5, r0
 948:Drivers/STM32F4xx_HAL_Driver/Src/stm32f4xx_hal_i2s_ex.c ****   {
 1313              		.loc 1 948 0
 1314 000a 41D4     		bmi	.L168
 945:Drivers/STM32F4xx_HAL_Driver/Src/stm32f4xx_hal_i2s_ex.c **** 
 1315              		.loc 1 945 0
 1316 000c 846B     		ldr	r4, [r0, #56]
 950:Drivers/STM32F4xx_HAL_Driver/Src/stm32f4xx_hal_i2s_ex.c ****     {
 1317              		.loc 1 950 0
 1318 000e E36B     		ldr	r3, [r4, #60]
 1319 0010 8342     		cmp	r3, r0
 1320 0012 20D1     		bne	.L172
 953:Drivers/STM32F4xx_HAL_Driver/Src/stm32f4xx_hal_i2s_ex.c ****           ((hi2s->Instance->I2SCFGR & SPI_I2SCFGR_I2SCFG) == I2S_MODE_SLAVE_TX))
 1321              		.loc 1 953 0
 1322 0014 2368     		ldr	r3, [r4]
 1323 0016 DA69     		ldr	r2, [r3, #28]
 1324 0018 02F44072 		and	r2, r2, #768
 1325 001c B2F5007F 		cmp	r2, #512
 1326 0020 03D0     		beq	.L173
 954:Drivers/STM32F4xx_HAL_Driver/Src/stm32f4xx_hal_i2s_ex.c ****       {
 1327              		.loc 1 954 0 discriminator 1
 1328 0022 DA69     		ldr	r2, [r3, #28]
 953:Drivers/STM32F4xx_HAL_Driver/Src/stm32f4xx_hal_i2s_ex.c ****           ((hi2s->Instance->I2SCFGR & SPI_I2SCFGR_I2SCFG) == I2S_MODE_SLAVE_TX))
 1329              		.loc 1 953 0 discriminator 1
 1330 0024 12F4407F 		tst	r2, #768
 1331 0028 06D1     		bne	.L174
 1332              	.L173:
 956:Drivers/STM32F4xx_HAL_Driver/Src/stm32f4xx_hal_i2s_ex.c ****       }
 1333              		.loc 1 956 0
 1334 002a 1E49     		ldr	r1, .L192
 1335 002c 1E4A     		ldr	r2, .L192+4
 1336 002e 8B42     		cmp	r3, r1
 1337 0030 0CBF     		ite	eq
 1338 0032 1346     		moveq	r3, r2
 1339 0034 4FF04023 		movne	r3, #1073758208
 1340              	.L174:
 960:Drivers/STM32F4xx_HAL_Driver/Src/stm32f4xx_hal_i2s_ex.c ****       }
ARM GAS  /tmp/ccVZ1tTs.s 			page 49


 1341              		.loc 1 960 0
 1342 0038 5A68     		ldr	r2, [r3, #4]
 1343 003a 22F00102 		bic	r2, r2, #1
 1344 003e 5A60     		str	r2, [r3, #4]
 963:Drivers/STM32F4xx_HAL_Driver/Src/stm32f4xx_hal_i2s_ex.c **** 
 1345              		.loc 1 963 0
 1346 0040 0023     		movs	r3, #0
 1347 0042 6386     		strh	r3, [r4, #50]	@ movhi
 965:Drivers/STM32F4xx_HAL_Driver/Src/stm32f4xx_hal_i2s_ex.c ****       {
 1348              		.loc 1 965 0
 1349 0044 638D     		ldrh	r3, [r4, #42]
 1350 0046 9BB2     		uxth	r3, r3
 1351 0048 2BB9     		cbnz	r3, .L172
 967:Drivers/STM32F4xx_HAL_Driver/Src/stm32f4xx_hal_i2s_ex.c **** 
 1352              		.loc 1 967 0
 1353 004a 0123     		movs	r3, #1
 1354 004c 84F84130 		strb	r3, [r4, #65]
 969:Drivers/STM32F4xx_HAL_Driver/Src/stm32f4xx_hal_i2s_ex.c ****       }
 1355              		.loc 1 969 0
 1356 0050 2046     		mov	r0, r4
 1357              	.LVL98:
 1358 0052 FFF7FEFF 		bl	HAL_I2SEx_TxRxCpltCallback
 1359              	.LVL99:
 1360              	.L172:
 973:Drivers/STM32F4xx_HAL_Driver/Src/stm32f4xx_hal_i2s_ex.c ****     {
 1361              		.loc 1 973 0
 1362 0056 A36B     		ldr	r3, [r4, #56]
 1363 0058 AB42     		cmp	r3, r5
 1364 005a 19D1     		bne	.L168
 976:Drivers/STM32F4xx_HAL_Driver/Src/stm32f4xx_hal_i2s_ex.c ****           ((hi2s->Instance->I2SCFGR & SPI_I2SCFGR_I2SCFG) == I2S_MODE_SLAVE_TX))
 1365              		.loc 1 976 0
 1366 005c 2368     		ldr	r3, [r4]
 1367 005e DA69     		ldr	r2, [r3, #28]
 1368 0060 02F44072 		and	r2, r2, #768
 1369 0064 B2F5007F 		cmp	r2, #512
 1370 0068 03D0     		beq	.L191
 977:Drivers/STM32F4xx_HAL_Driver/Src/stm32f4xx_hal_i2s_ex.c ****       {
 1371              		.loc 1 977 0 discriminator 1
 1372 006a DA69     		ldr	r2, [r3, #28]
 976:Drivers/STM32F4xx_HAL_Driver/Src/stm32f4xx_hal_i2s_ex.c ****           ((hi2s->Instance->I2SCFGR & SPI_I2SCFGR_I2SCFG) == I2S_MODE_SLAVE_TX))
 1373              		.loc 1 976 0 discriminator 1
 1374 006c 12F4407F 		tst	r2, #768
 1375 0070 0FD1     		bne	.L180
 1376              	.L191:
 983:Drivers/STM32F4xx_HAL_Driver/Src/stm32f4xx_hal_i2s_ex.c ****       }
 1377              		.loc 1 983 0
 1378 0072 5A68     		ldr	r2, [r3, #4]
 1379 0074 22F00202 		bic	r2, r2, #2
 1380 0078 5A60     		str	r2, [r3, #4]
 986:Drivers/STM32F4xx_HAL_Driver/Src/stm32f4xx_hal_i2s_ex.c **** 
 1381              		.loc 1 986 0
 1382 007a 0023     		movs	r3, #0
 1383 007c 6385     		strh	r3, [r4, #42]	@ movhi
 988:Drivers/STM32F4xx_HAL_Driver/Src/stm32f4xx_hal_i2s_ex.c ****       {
 1384              		.loc 1 988 0
 1385 007e 638E     		ldrh	r3, [r4, #50]
 1386 0080 9BB2     		uxth	r3, r3
ARM GAS  /tmp/ccVZ1tTs.s 			page 50


 1387 0082 2BB9     		cbnz	r3, .L168
 990:Drivers/STM32F4xx_HAL_Driver/Src/stm32f4xx_hal_i2s_ex.c **** 
 1388              		.loc 1 990 0
 1389 0084 0123     		movs	r3, #1
 1390 0086 84F84130 		strb	r3, [r4, #65]
 992:Drivers/STM32F4xx_HAL_Driver/Src/stm32f4xx_hal_i2s_ex.c ****       }
 1391              		.loc 1 992 0
 1392 008a 2046     		mov	r0, r4
 1393 008c FFF7FEFF 		bl	HAL_I2SEx_TxRxCpltCallback
 1394              	.LVL100:
 1395              	.L168:
 996:Drivers/STM32F4xx_HAL_Driver/Src/stm32f4xx_hal_i2s_ex.c **** 
 1396              		.loc 1 996 0
 1397 0090 38BD     		pop	{r3, r4, r5, pc}
 1398              	.LVL101:
 1399              	.L180:
 983:Drivers/STM32F4xx_HAL_Driver/Src/stm32f4xx_hal_i2s_ex.c ****       }
 1400              		.loc 1 983 0
 1401 0092 0449     		ldr	r1, .L192
 1402 0094 044A     		ldr	r2, .L192+4
 1403 0096 8B42     		cmp	r3, r1
 1404 0098 0CBF     		ite	eq
 1405 009a 1346     		moveq	r3, r2
 1406 009c 4FF04023 		movne	r3, #1073758208
 1407 00a0 E7E7     		b	.L191
 1408              	.L193:
 1409 00a2 00BF     		.align	2
 1410              	.L192:
 1411 00a4 00380040 		.word	1073756160
 1412 00a8 00340040 		.word	1073755136
 1413              		.cfi_endproc
 1414              	.LFE133:
 1416              		.section	.text.HAL_I2SEx_FullDuplex_IRQHandler,"ax",%progbits
 1417              		.align	1
 1418              		.global	HAL_I2SEx_FullDuplex_IRQHandler
 1419              		.syntax unified
 1420              		.thumb
 1421              		.thumb_func
 1422              		.fpu fpv4-sp-d16
 1424              	HAL_I2SEx_FullDuplex_IRQHandler:
 1425              	.LFB129:
 763:Drivers/STM32F4xx_HAL_Driver/Src/stm32f4xx_hal_i2s_ex.c ****   __IO uint32_t i2ssr    = hi2s->Instance->SR ;
 1426              		.loc 1 763 0
 1427              		.cfi_startproc
 1428              		@ args = 0, pretend = 0, frame = 16
 1429              		@ frame_needed = 0, uses_anonymous_args = 0
 1430              	.LVL102:
 1431 0000 1FB5     		push	{r0, r1, r2, r3, r4, lr}
 1432              	.LCFI11:
 1433              		.cfi_def_cfa_offset 24
 1434              		.cfi_offset 4, -8
 1435              		.cfi_offset 14, -4
 764:Drivers/STM32F4xx_HAL_Driver/Src/stm32f4xx_hal_i2s_ex.c ****   __IO uint32_t i2sextsr = I2SxEXT(hi2s->Instance)->SR;
 1436              		.loc 1 764 0
 1437 0002 0368     		ldr	r3, [r0]
 765:Drivers/STM32F4xx_HAL_Driver/Src/stm32f4xx_hal_i2s_ex.c **** 
 1438              		.loc 1 765 0
ARM GAS  /tmp/ccVZ1tTs.s 			page 51


 1439 0004 9549     		ldr	r1, .L263
 764:Drivers/STM32F4xx_HAL_Driver/Src/stm32f4xx_hal_i2s_ex.c ****   __IO uint32_t i2sextsr = I2SxEXT(hi2s->Instance)->SR;
 1440              		.loc 1 764 0
 1441 0006 9A68     		ldr	r2, [r3, #8]
 1442 0008 0092     		str	r2, [sp]
 765:Drivers/STM32F4xx_HAL_Driver/Src/stm32f4xx_hal_i2s_ex.c **** 
 1443              		.loc 1 765 0
 1444 000a 954A     		ldr	r2, .L263+4
 1445 000c 8B42     		cmp	r3, r1
 1446 000e 18BF     		it	ne
 1447 0010 4FF04022 		movne	r2, #1073758208
 763:Drivers/STM32F4xx_HAL_Driver/Src/stm32f4xx_hal_i2s_ex.c ****   __IO uint32_t i2ssr    = hi2s->Instance->SR ;
 1448              		.loc 1 763 0
 1449 0014 0446     		mov	r4, r0
 765:Drivers/STM32F4xx_HAL_Driver/Src/stm32f4xx_hal_i2s_ex.c **** 
 1450              		.loc 1 765 0
 1451 0016 9168     		ldr	r1, [r2, #8]
 1452 0018 0191     		str	r1, [sp, #4]
 768:Drivers/STM32F4xx_HAL_Driver/Src/stm32f4xx_hal_i2s_ex.c ****       || ((hi2s->Instance->I2SCFGR & SPI_I2SCFGR_I2SCFG) == I2S_MODE_SLAVE_TX))
 1453              		.loc 1 768 0
 1454 001a D969     		ldr	r1, [r3, #28]
 1455 001c 01F44071 		and	r1, r1, #768
 1456 0020 B1F5007F 		cmp	r1, #512
 1457 0024 04D0     		beq	.L196
 769:Drivers/STM32F4xx_HAL_Driver/Src/stm32f4xx_hal_i2s_ex.c ****   {
 1458              		.loc 1 769 0
 1459 0026 D969     		ldr	r1, [r3, #28]
 1460 0028 11F4407F 		tst	r1, #768
 1461 002c 40F09A80 		bne	.L197
 1462              	.L196:
 772:Drivers/STM32F4xx_HAL_Driver/Src/stm32f4xx_hal_i2s_ex.c ****     {
 1463              		.loc 1 772 0
 1464 0030 009A     		ldr	r2, [sp]
 1465 0032 9207     		lsls	r2, r2, #30
 1466 0034 1DD5     		bpl	.L199
 772:Drivers/STM32F4xx_HAL_Driver/Src/stm32f4xx_hal_i2s_ex.c ****     {
 1467              		.loc 1 772 0 is_stmt 0 discriminator 1
 1468 0036 5A68     		ldr	r2, [r3, #4]
 1469 0038 1006     		lsls	r0, r2, #24
 1470              	.LVL103:
 1471 003a 1AD5     		bpl	.L199
 1472              	.LVL104:
 1473              	.LBB31:
 1474              	.LBB32:
1032:Drivers/STM32F4xx_HAL_Driver/Src/stm32f4xx_hal_i2s_ex.c ****     hi2s->TxXferCount--;
 1475              		.loc 1 1032 0 is_stmt 1
 1476 003c 626A     		ldr	r2, [r4, #36]
 1477 003e 911C     		adds	r1, r2, #2
 1478 0040 1288     		ldrh	r2, [r2]
 1479 0042 6162     		str	r1, [r4, #36]
 1480 0044 DA60     		str	r2, [r3, #12]
1033:Drivers/STM32F4xx_HAL_Driver/Src/stm32f4xx_hal_i2s_ex.c **** 
 1481              		.loc 1 1033 0
 1482 0046 628D     		ldrh	r2, [r4, #42]
 1483 0048 013A     		subs	r2, r2, #1
 1484 004a 92B2     		uxth	r2, r2
 1485 004c 6285     		strh	r2, [r4, #42]	@ movhi
ARM GAS  /tmp/ccVZ1tTs.s 			page 52


1035:Drivers/STM32F4xx_HAL_Driver/Src/stm32f4xx_hal_i2s_ex.c ****     {
 1486              		.loc 1 1035 0
 1487 004e 628D     		ldrh	r2, [r4, #42]
 1488 0050 92B2     		uxth	r2, r2
 1489 0052 72B9     		cbnz	r2, .L199
1038:Drivers/STM32F4xx_HAL_Driver/Src/stm32f4xx_hal_i2s_ex.c **** 
 1490              		.loc 1 1038 0
 1491 0054 5A68     		ldr	r2, [r3, #4]
 1492 0056 22F0A002 		bic	r2, r2, #160
 1493 005a 1204     		lsls	r2, r2, #16
 1494 005c 120C     		lsrs	r2, r2, #16
 1495 005e 5A60     		str	r2, [r3, #4]
1040:Drivers/STM32F4xx_HAL_Driver/Src/stm32f4xx_hal_i2s_ex.c ****       {
 1496              		.loc 1 1040 0
 1497 0060 638E     		ldrh	r3, [r4, #50]
 1498 0062 9BB2     		uxth	r3, r3
 1499 0064 2BB9     		cbnz	r3, .L199
1042:Drivers/STM32F4xx_HAL_Driver/Src/stm32f4xx_hal_i2s_ex.c ****         HAL_I2SEx_TxRxCpltCallback(hi2s);
 1500              		.loc 1 1042 0
 1501 0066 0123     		movs	r3, #1
 1502 0068 84F84130 		strb	r3, [r4, #65]
1043:Drivers/STM32F4xx_HAL_Driver/Src/stm32f4xx_hal_i2s_ex.c ****       }
 1503              		.loc 1 1043 0
 1504 006c 2046     		mov	r0, r4
 1505 006e FFF7FEFF 		bl	HAL_I2SEx_TxRxCpltCallback
 1506              	.LVL105:
 1507              	.L199:
 1508              	.LBE32:
 1509              	.LBE31:
 780:Drivers/STM32F4xx_HAL_Driver/Src/stm32f4xx_hal_i2s_ex.c ****     {
 1510              		.loc 1 780 0
 1511 0072 019B     		ldr	r3, [sp, #4]
 1512 0074 D907     		lsls	r1, r3, #31
 1513 0076 22D5     		bpl	.L202
 780:Drivers/STM32F4xx_HAL_Driver/Src/stm32f4xx_hal_i2s_ex.c ****     {
 1514              		.loc 1 780 0 is_stmt 0 discriminator 1
 1515 0078 784A     		ldr	r2, .L263
 1516 007a 2168     		ldr	r1, [r4]
 1517 007c 784B     		ldr	r3, .L263+4
 1518 007e 9142     		cmp	r1, r2
 1519 0080 18BF     		it	ne
 1520 0082 4FF04023 		movne	r3, #1073758208
 1521 0086 5A68     		ldr	r2, [r3, #4]
 1522 0088 5206     		lsls	r2, r2, #25
 1523 008a 18D5     		bpl	.L202
 1524              	.LVL106:
 1525              	.LBB33:
 1526              	.LBB34:
 1527              	.LBB35:
1096:Drivers/STM32F4xx_HAL_Driver/Src/stm32f4xx_hal_i2s_ex.c ****     hi2s->RxXferCount--;
 1528              		.loc 1 1096 0 is_stmt 1
 1529 008c E26A     		ldr	r2, [r4, #44]
 1530 008e D968     		ldr	r1, [r3, #12]
 1531 0090 901C     		adds	r0, r2, #2
 1532 0092 E062     		str	r0, [r4, #44]
 1533 0094 1180     		strh	r1, [r2]	@ movhi
1097:Drivers/STM32F4xx_HAL_Driver/Src/stm32f4xx_hal_i2s_ex.c **** 
ARM GAS  /tmp/ccVZ1tTs.s 			page 53


 1534              		.loc 1 1097 0
 1535 0096 628E     		ldrh	r2, [r4, #50]
 1536 0098 013A     		subs	r2, r2, #1
 1537 009a 92B2     		uxth	r2, r2
 1538 009c 6286     		strh	r2, [r4, #50]	@ movhi
1099:Drivers/STM32F4xx_HAL_Driver/Src/stm32f4xx_hal_i2s_ex.c ****     {
 1539              		.loc 1 1099 0
 1540 009e 628E     		ldrh	r2, [r4, #50]
 1541 00a0 92B2     		uxth	r2, r2
 1542 00a2 62B9     		cbnz	r2, .L202
1102:Drivers/STM32F4xx_HAL_Driver/Src/stm32f4xx_hal_i2s_ex.c **** 
 1543              		.loc 1 1102 0
 1544 00a4 5A68     		ldr	r2, [r3, #4]
 1545 00a6 22F06002 		bic	r2, r2, #96
 1546 00aa 5A60     		str	r2, [r3, #4]
1104:Drivers/STM32F4xx_HAL_Driver/Src/stm32f4xx_hal_i2s_ex.c ****       {
 1547              		.loc 1 1104 0
 1548 00ac 638D     		ldrh	r3, [r4, #42]
 1549 00ae 9BB2     		uxth	r3, r3
 1550 00b0 2BB9     		cbnz	r3, .L202
1106:Drivers/STM32F4xx_HAL_Driver/Src/stm32f4xx_hal_i2s_ex.c ****         HAL_I2SEx_TxRxCpltCallback(hi2s);
 1551              		.loc 1 1106 0
 1552 00b2 0123     		movs	r3, #1
 1553 00b4 84F84130 		strb	r3, [r4, #65]
1107:Drivers/STM32F4xx_HAL_Driver/Src/stm32f4xx_hal_i2s_ex.c ****       }
 1554              		.loc 1 1107 0
 1555 00b8 2046     		mov	r0, r4
 1556 00ba FFF7FEFF 		bl	HAL_I2SEx_TxRxCpltCallback
 1557              	.LVL107:
 1558              	.L202:
 1559              	.LBE35:
 1560              	.LBE34:
 1561              	.LBE33:
 788:Drivers/STM32F4xx_HAL_Driver/Src/stm32f4xx_hal_i2s_ex.c ****     {
 1562              		.loc 1 788 0
 1563 00be 019B     		ldr	r3, [sp, #4]
 1564 00c0 5806     		lsls	r0, r3, #25
 1565 00c2 24D5     		bpl	.L205
 788:Drivers/STM32F4xx_HAL_Driver/Src/stm32f4xx_hal_i2s_ex.c ****     {
 1566              		.loc 1 788 0 is_stmt 0 discriminator 1
 1567 00c4 6549     		ldr	r1, .L263
 1568 00c6 2368     		ldr	r3, [r4]
 1569 00c8 654A     		ldr	r2, .L263+4
 1570 00ca 8B42     		cmp	r3, r1
 1571 00cc 18BF     		it	ne
 1572 00ce 4FF04022 		movne	r2, #1073758208
 1573 00d2 5168     		ldr	r1, [r2, #4]
 1574 00d4 8906     		lsls	r1, r1, #26
 1575 00d6 1AD5     		bpl	.L205
 791:Drivers/STM32F4xx_HAL_Driver/Src/stm32f4xx_hal_i2s_ex.c **** 
 1576              		.loc 1 791 0 is_stmt 1 discriminator 4
 1577 00d8 5168     		ldr	r1, [r2, #4]
 1578 00da 21F06001 		bic	r1, r1, #96
 1579 00de 5160     		str	r1, [r2, #4]
 794:Drivers/STM32F4xx_HAL_Driver/Src/stm32f4xx_hal_i2s_ex.c **** 
 1580              		.loc 1 794 0 discriminator 4
 1581 00e0 5A68     		ldr	r2, [r3, #4]
ARM GAS  /tmp/ccVZ1tTs.s 			page 54


 1582 00e2 22F0A002 		bic	r2, r2, #160
 1583 00e6 1204     		lsls	r2, r2, #16
 1584 00e8 120C     		lsrs	r2, r2, #16
 1585 00ea 5A60     		str	r2, [r3, #4]
 1586              	.LBB36:
 797:Drivers/STM32F4xx_HAL_Driver/Src/stm32f4xx_hal_i2s_ex.c **** 
 1587              		.loc 1 797 0 discriminator 4
 1588 00ec 0022     		movs	r2, #0
 1589 00ee 0292     		str	r2, [sp, #8]
 1590 00f0 DA68     		ldr	r2, [r3, #12]
 1591 00f2 0292     		str	r2, [sp, #8]
 1592 00f4 9B68     		ldr	r3, [r3, #8]
 1593 00f6 0293     		str	r3, [sp, #8]
 1594 00f8 029B     		ldr	r3, [sp, #8]
 1595              	.LBE36:
 800:Drivers/STM32F4xx_HAL_Driver/Src/stm32f4xx_hal_i2s_ex.c **** 
 1596              		.loc 1 800 0 discriminator 4
 1597 00fa 0123     		movs	r3, #1
 1598 00fc 84F84130 		strb	r3, [r4, #65]
 803:Drivers/STM32F4xx_HAL_Driver/Src/stm32f4xx_hal_i2s_ex.c ****       HAL_I2S_ErrorCallback(hi2s);
 1599              		.loc 1 803 0 discriminator 4
 1600 0100 636C     		ldr	r3, [r4, #68]
 1601 0102 43F00203 		orr	r3, r3, #2
 1602 0106 6364     		str	r3, [r4, #68]
 804:Drivers/STM32F4xx_HAL_Driver/Src/stm32f4xx_hal_i2s_ex.c ****     }
 1603              		.loc 1 804 0 discriminator 4
 1604 0108 2046     		mov	r0, r4
 1605 010a FFF7FEFF 		bl	HAL_I2S_ErrorCallback
 1606              	.LVL108:
 1607              	.L205:
 808:Drivers/STM32F4xx_HAL_Driver/Src/stm32f4xx_hal_i2s_ex.c ****     {
 1608              		.loc 1 808 0
 1609 010e 009B     		ldr	r3, [sp]
 1610 0110 1B07     		lsls	r3, r3, #28
 1611 0112 40F1A080 		bpl	.L194
 808:Drivers/STM32F4xx_HAL_Driver/Src/stm32f4xx_hal_i2s_ex.c ****     {
 1612              		.loc 1 808 0 is_stmt 0 discriminator 1
 1613 0116 2368     		ldr	r3, [r4]
 1614 0118 5A68     		ldr	r2, [r3, #4]
 1615 011a 9006     		lsls	r0, r2, #26
 1616 011c 40F19B80 		bpl	.L194
 811:Drivers/STM32F4xx_HAL_Driver/Src/stm32f4xx_hal_i2s_ex.c **** 
 1617              		.loc 1 811 0 is_stmt 1
 1618 0120 5A68     		ldr	r2, [r3, #4]
 814:Drivers/STM32F4xx_HAL_Driver/Src/stm32f4xx_hal_i2s_ex.c **** 
 1619              		.loc 1 814 0
 1620 0122 4E49     		ldr	r1, .L263
 811:Drivers/STM32F4xx_HAL_Driver/Src/stm32f4xx_hal_i2s_ex.c **** 
 1621              		.loc 1 811 0
 1622 0124 22F0A002 		bic	r2, r2, #160
 1623 0128 1204     		lsls	r2, r2, #16
 1624 012a 120C     		lsrs	r2, r2, #16
 1625 012c 5A60     		str	r2, [r3, #4]
 814:Drivers/STM32F4xx_HAL_Driver/Src/stm32f4xx_hal_i2s_ex.c **** 
 1626              		.loc 1 814 0
 1627 012e 4C4A     		ldr	r2, .L263+4
 1628 0130 8B42     		cmp	r3, r1
ARM GAS  /tmp/ccVZ1tTs.s 			page 55


 1629 0132 18BF     		it	ne
 1630 0134 4FF04022 		movne	r2, #1073758208
 1631 0138 5168     		ldr	r1, [r2, #4]
 1632 013a 21F06001 		bic	r1, r1, #96
 1633 013e 5160     		str	r1, [r2, #4]
 1634              	.LBB37:
 817:Drivers/STM32F4xx_HAL_Driver/Src/stm32f4xx_hal_i2s_ex.c **** 
 1635              		.loc 1 817 0
 1636 0140 0022     		movs	r2, #0
 1637 0142 0392     		str	r2, [sp, #12]
 1638 0144 9B68     		ldr	r3, [r3, #8]
 1639 0146 0393     		str	r3, [sp, #12]
 1640 0148 039B     		ldr	r3, [sp, #12]
 1641              	.L262:
 1642              	.LBE37:
 873:Drivers/STM32F4xx_HAL_Driver/Src/stm32f4xx_hal_i2s_ex.c **** 
 1643              		.loc 1 873 0 discriminator 4
 1644 014a 0123     		movs	r3, #1
 1645 014c 84F84130 		strb	r3, [r4, #65]
 876:Drivers/STM32F4xx_HAL_Driver/Src/stm32f4xx_hal_i2s_ex.c ****       HAL_I2S_ErrorCallback(hi2s);
 1646              		.loc 1 876 0 discriminator 4
 1647 0150 636C     		ldr	r3, [r4, #68]
 877:Drivers/STM32F4xx_HAL_Driver/Src/stm32f4xx_hal_i2s_ex.c ****     }
 1648              		.loc 1 877 0 discriminator 4
 1649 0152 2046     		mov	r0, r4
 876:Drivers/STM32F4xx_HAL_Driver/Src/stm32f4xx_hal_i2s_ex.c ****       HAL_I2S_ErrorCallback(hi2s);
 1650              		.loc 1 876 0 discriminator 4
 1651 0154 43F00403 		orr	r3, r3, #4
 1652 0158 6364     		str	r3, [r4, #68]
 880:Drivers/STM32F4xx_HAL_Driver/Src/stm32f4xx_hal_i2s_ex.c **** 
 1653              		.loc 1 880 0 discriminator 4
 1654 015a 04B0     		add	sp, sp, #16
 1655              	.LCFI12:
 1656              		.cfi_remember_state
 1657              		.cfi_def_cfa_offset 8
 1658              		@ sp needed
 1659 015c BDE81040 		pop	{r4, lr}
 1660              	.LCFI13:
 1661              		.cfi_restore 14
 1662              		.cfi_restore 4
 1663              		.cfi_def_cfa_offset 0
 1664              	.LVL109:
 877:Drivers/STM32F4xx_HAL_Driver/Src/stm32f4xx_hal_i2s_ex.c ****     }
 1665              		.loc 1 877 0 discriminator 4
 1666 0160 FFF7FEBF 		b	HAL_I2S_ErrorCallback
 1667              	.LVL110:
 1668              	.L197:
 1669              	.LCFI14:
 1670              		.cfi_restore_state
 831:Drivers/STM32F4xx_HAL_Driver/Src/stm32f4xx_hal_i2s_ex.c ****     {
 1671              		.loc 1 831 0
 1672 0164 019B     		ldr	r3, [sp, #4]
 1673 0166 9907     		lsls	r1, r3, #30
 1674 0168 1AD5     		bpl	.L212
 831:Drivers/STM32F4xx_HAL_Driver/Src/stm32f4xx_hal_i2s_ex.c ****     {
 1675              		.loc 1 831 0 is_stmt 0 discriminator 5
 1676 016a 5368     		ldr	r3, [r2, #4]
ARM GAS  /tmp/ccVZ1tTs.s 			page 56


 1677 016c 1B06     		lsls	r3, r3, #24
 1678 016e 17D5     		bpl	.L212
 1679              	.LVL111:
 1680              	.LBB38:
 1681              	.LBB39:
 1682              	.LBB40:
1050:Drivers/STM32F4xx_HAL_Driver/Src/stm32f4xx_hal_i2s_ex.c ****     hi2s->TxXferCount--;
 1683              		.loc 1 1050 0 is_stmt 1
 1684 0170 436A     		ldr	r3, [r0, #36]
 1685 0172 991C     		adds	r1, r3, #2
 1686 0174 1B88     		ldrh	r3, [r3]
 1687 0176 4162     		str	r1, [r0, #36]
 1688 0178 D360     		str	r3, [r2, #12]
1051:Drivers/STM32F4xx_HAL_Driver/Src/stm32f4xx_hal_i2s_ex.c **** 
 1689              		.loc 1 1051 0
 1690 017a 438D     		ldrh	r3, [r0, #42]
 1691 017c 013B     		subs	r3, r3, #1
 1692 017e 9BB2     		uxth	r3, r3
 1693 0180 4385     		strh	r3, [r0, #42]	@ movhi
1053:Drivers/STM32F4xx_HAL_Driver/Src/stm32f4xx_hal_i2s_ex.c ****     {
 1694              		.loc 1 1053 0
 1695 0182 438D     		ldrh	r3, [r0, #42]
 1696 0184 9BB2     		uxth	r3, r3
 1697 0186 5BB9     		cbnz	r3, .L212
1056:Drivers/STM32F4xx_HAL_Driver/Src/stm32f4xx_hal_i2s_ex.c **** 
 1698              		.loc 1 1056 0
 1699 0188 5368     		ldr	r3, [r2, #4]
 1700 018a 23F0A003 		bic	r3, r3, #160
 1701 018e 5360     		str	r3, [r2, #4]
1058:Drivers/STM32F4xx_HAL_Driver/Src/stm32f4xx_hal_i2s_ex.c ****       {
 1702              		.loc 1 1058 0
 1703 0190 438E     		ldrh	r3, [r0, #50]
 1704 0192 9BB2     		uxth	r3, r3
 1705 0194 23B9     		cbnz	r3, .L212
1060:Drivers/STM32F4xx_HAL_Driver/Src/stm32f4xx_hal_i2s_ex.c ****         HAL_I2SEx_TxRxCpltCallback(hi2s);
 1706              		.loc 1 1060 0
 1707 0196 0123     		movs	r3, #1
 1708 0198 80F84130 		strb	r3, [r0, #65]
1061:Drivers/STM32F4xx_HAL_Driver/Src/stm32f4xx_hal_i2s_ex.c ****       }
 1709              		.loc 1 1061 0
 1710 019c FFF7FEFF 		bl	HAL_I2SEx_TxRxCpltCallback
 1711              	.LVL112:
 1712              	.L212:
 1713              	.LBE40:
 1714              	.LBE39:
 1715              	.LBE38:
 839:Drivers/STM32F4xx_HAL_Driver/Src/stm32f4xx_hal_i2s_ex.c ****     {
 1716              		.loc 1 839 0
 1717 01a0 009B     		ldr	r3, [sp]
 1718 01a2 D807     		lsls	r0, r3, #31
 1719 01a4 1ED5     		bpl	.L215
 839:Drivers/STM32F4xx_HAL_Driver/Src/stm32f4xx_hal_i2s_ex.c ****     {
 1720              		.loc 1 839 0 is_stmt 0 discriminator 1
 1721 01a6 2268     		ldr	r2, [r4]
 1722 01a8 5368     		ldr	r3, [r2, #4]
 1723 01aa 5906     		lsls	r1, r3, #25
 1724 01ac 1AD5     		bpl	.L215
ARM GAS  /tmp/ccVZ1tTs.s 			page 57


 1725              	.LVL113:
 1726              	.LBB41:
 1727              	.LBB42:
1078:Drivers/STM32F4xx_HAL_Driver/Src/stm32f4xx_hal_i2s_ex.c ****     hi2s->RxXferCount--;
 1728              		.loc 1 1078 0 is_stmt 1
 1729 01ae E36A     		ldr	r3, [r4, #44]
 1730 01b0 D168     		ldr	r1, [r2, #12]
 1731 01b2 981C     		adds	r0, r3, #2
 1732 01b4 E062     		str	r0, [r4, #44]
 1733 01b6 1980     		strh	r1, [r3]	@ movhi
1079:Drivers/STM32F4xx_HAL_Driver/Src/stm32f4xx_hal_i2s_ex.c **** 
 1734              		.loc 1 1079 0
 1735 01b8 638E     		ldrh	r3, [r4, #50]
 1736 01ba 013B     		subs	r3, r3, #1
 1737 01bc 9BB2     		uxth	r3, r3
 1738 01be 6386     		strh	r3, [r4, #50]	@ movhi
1081:Drivers/STM32F4xx_HAL_Driver/Src/stm32f4xx_hal_i2s_ex.c ****     {
 1739              		.loc 1 1081 0
 1740 01c0 638E     		ldrh	r3, [r4, #50]
 1741 01c2 9BB2     		uxth	r3, r3
 1742 01c4 73B9     		cbnz	r3, .L215
1084:Drivers/STM32F4xx_HAL_Driver/Src/stm32f4xx_hal_i2s_ex.c **** 
 1743              		.loc 1 1084 0
 1744 01c6 5368     		ldr	r3, [r2, #4]
 1745 01c8 23F06003 		bic	r3, r3, #96
 1746 01cc 1B04     		lsls	r3, r3, #16
 1747 01ce 1B0C     		lsrs	r3, r3, #16
 1748 01d0 5360     		str	r3, [r2, #4]
1086:Drivers/STM32F4xx_HAL_Driver/Src/stm32f4xx_hal_i2s_ex.c ****       {
 1749              		.loc 1 1086 0
 1750 01d2 638D     		ldrh	r3, [r4, #42]
 1751 01d4 9BB2     		uxth	r3, r3
 1752 01d6 2BB9     		cbnz	r3, .L215
1088:Drivers/STM32F4xx_HAL_Driver/Src/stm32f4xx_hal_i2s_ex.c ****         HAL_I2SEx_TxRxCpltCallback(hi2s);
 1753              		.loc 1 1088 0
 1754 01d8 0123     		movs	r3, #1
 1755 01da 84F84130 		strb	r3, [r4, #65]
1089:Drivers/STM32F4xx_HAL_Driver/Src/stm32f4xx_hal_i2s_ex.c ****       }
 1756              		.loc 1 1089 0
 1757 01de 2046     		mov	r0, r4
 1758 01e0 FFF7FEFF 		bl	HAL_I2SEx_TxRxCpltCallback
 1759              	.LVL114:
 1760              	.L215:
 1761              	.LBE42:
 1762              	.LBE41:
 847:Drivers/STM32F4xx_HAL_Driver/Src/stm32f4xx_hal_i2s_ex.c ****     {
 1763              		.loc 1 847 0
 1764 01e4 009B     		ldr	r3, [sp]
 1765 01e6 5A06     		lsls	r2, r3, #25
 1766 01e8 1DD5     		bpl	.L217
 847:Drivers/STM32F4xx_HAL_Driver/Src/stm32f4xx_hal_i2s_ex.c ****     {
 1767              		.loc 1 847 0 is_stmt 0 discriminator 1
 1768 01ea 2268     		ldr	r2, [r4]
 1769 01ec 5368     		ldr	r3, [r2, #4]
 1770 01ee 9B06     		lsls	r3, r3, #26
 1771 01f0 19D5     		bpl	.L217
 850:Drivers/STM32F4xx_HAL_Driver/Src/stm32f4xx_hal_i2s_ex.c **** 
ARM GAS  /tmp/ccVZ1tTs.s 			page 58


 1772              		.loc 1 850 0 is_stmt 1
 1773 01f2 5368     		ldr	r3, [r2, #4]
 853:Drivers/STM32F4xx_HAL_Driver/Src/stm32f4xx_hal_i2s_ex.c **** 
 1774              		.loc 1 853 0
 1775 01f4 1949     		ldr	r1, .L263
 850:Drivers/STM32F4xx_HAL_Driver/Src/stm32f4xx_hal_i2s_ex.c **** 
 1776              		.loc 1 850 0
 1777 01f6 23F06003 		bic	r3, r3, #96
 1778 01fa 1B04     		lsls	r3, r3, #16
 1779 01fc 1B0C     		lsrs	r3, r3, #16
 1780 01fe 5360     		str	r3, [r2, #4]
 853:Drivers/STM32F4xx_HAL_Driver/Src/stm32f4xx_hal_i2s_ex.c **** 
 1781              		.loc 1 853 0
 1782 0200 174B     		ldr	r3, .L263+4
 1783 0202 8A42     		cmp	r2, r1
 1784 0204 18BF     		it	ne
 1785 0206 4FF04023 		movne	r3, #1073758208
 860:Drivers/STM32F4xx_HAL_Driver/Src/stm32f4xx_hal_i2s_ex.c ****     }
 1786              		.loc 1 860 0
 1787 020a 2046     		mov	r0, r4
 853:Drivers/STM32F4xx_HAL_Driver/Src/stm32f4xx_hal_i2s_ex.c **** 
 1788              		.loc 1 853 0
 1789 020c 5A68     		ldr	r2, [r3, #4]
 1790 020e 22F0A002 		bic	r2, r2, #160
 1791 0212 5A60     		str	r2, [r3, #4]
 856:Drivers/STM32F4xx_HAL_Driver/Src/stm32f4xx_hal_i2s_ex.c **** 
 1792              		.loc 1 856 0
 1793 0214 0123     		movs	r3, #1
 1794 0216 84F84130 		strb	r3, [r4, #65]
 859:Drivers/STM32F4xx_HAL_Driver/Src/stm32f4xx_hal_i2s_ex.c ****       HAL_I2S_ErrorCallback(hi2s);
 1795              		.loc 1 859 0
 1796 021a 636C     		ldr	r3, [r4, #68]
 1797 021c 43F00203 		orr	r3, r3, #2
 1798 0220 6364     		str	r3, [r4, #68]
 860:Drivers/STM32F4xx_HAL_Driver/Src/stm32f4xx_hal_i2s_ex.c ****     }
 1799              		.loc 1 860 0
 1800 0222 FFF7FEFF 		bl	HAL_I2S_ErrorCallback
 1801              	.LVL115:
 1802              	.L217:
 864:Drivers/STM32F4xx_HAL_Driver/Src/stm32f4xx_hal_i2s_ex.c ****     {
 1803              		.loc 1 864 0
 1804 0226 019B     		ldr	r3, [sp, #4]
 1805 0228 1807     		lsls	r0, r3, #28
 1806 022a 14D5     		bpl	.L194
 864:Drivers/STM32F4xx_HAL_Driver/Src/stm32f4xx_hal_i2s_ex.c ****     {
 1807              		.loc 1 864 0 is_stmt 0 discriminator 1
 1808 022c 0B49     		ldr	r1, .L263
 1809 022e 2268     		ldr	r2, [r4]
 1810 0230 0B4B     		ldr	r3, .L263+4
 1811 0232 8A42     		cmp	r2, r1
 1812 0234 18BF     		it	ne
 1813 0236 4FF04023 		movne	r3, #1073758208
 1814 023a 5968     		ldr	r1, [r3, #4]
 1815 023c 8906     		lsls	r1, r1, #26
 1816 023e 0AD5     		bpl	.L194
 867:Drivers/STM32F4xx_HAL_Driver/Src/stm32f4xx_hal_i2s_ex.c **** 
 1817              		.loc 1 867 0 is_stmt 1 discriminator 4
ARM GAS  /tmp/ccVZ1tTs.s 			page 59


 1818 0240 5968     		ldr	r1, [r3, #4]
 1819 0242 21F0A001 		bic	r1, r1, #160
 1820 0246 5960     		str	r1, [r3, #4]
 870:Drivers/STM32F4xx_HAL_Driver/Src/stm32f4xx_hal_i2s_ex.c **** 
 1821              		.loc 1 870 0 discriminator 4
 1822 0248 5368     		ldr	r3, [r2, #4]
 1823 024a 23F06003 		bic	r3, r3, #96
 1824 024e 1B04     		lsls	r3, r3, #16
 1825 0250 1B0C     		lsrs	r3, r3, #16
 1826 0252 5360     		str	r3, [r2, #4]
 1827 0254 79E7     		b	.L262
 1828              	.L194:
 880:Drivers/STM32F4xx_HAL_Driver/Src/stm32f4xx_hal_i2s_ex.c **** 
 1829              		.loc 1 880 0
 1830 0256 04B0     		add	sp, sp, #16
 1831              	.LCFI15:
 1832              		.cfi_def_cfa_offset 8
 1833              		@ sp needed
 1834 0258 10BD     		pop	{r4, pc}
 1835              	.LVL116:
 1836              	.L264:
 1837 025a 00BF     		.align	2
 1838              	.L263:
 1839 025c 00380040 		.word	1073756160
 1840 0260 00340040 		.word	1073755136
 1841              		.cfi_endproc
 1842              	.LFE129:
 1844              		.text
 1845              	.Letext0:
 1846              		.file 2 "/usr/arm-none-eabi/include/machine/_default_types.h"
 1847              		.file 3 "/usr/arm-none-eabi/include/sys/_stdint.h"
 1848              		.file 4 "Drivers/CMSIS/Include/core_cm4.h"
 1849              		.file 5 "Drivers/CMSIS/Device/ST/STM32F4xx/Include/system_stm32f4xx.h"
 1850              		.file 6 "Drivers/CMSIS/Device/ST/STM32F4xx/Include/stm32f407xx.h"
 1851              		.file 7 "/usr/arm-none-eabi/include/sys/lock.h"
 1852              		.file 8 "/usr/arm-none-eabi/include/sys/_types.h"
 1853              		.file 9 "/usr/lib/gcc/arm-none-eabi/7.3.1/include/stddef.h"
 1854              		.file 10 "/usr/arm-none-eabi/include/sys/reent.h"
 1855              		.file 11 "Drivers/CMSIS/Device/ST/STM32F4xx/Include/stm32f4xx.h"
 1856              		.file 12 "Drivers/STM32F4xx_HAL_Driver/Inc/stm32f4xx_hal_def.h"
 1857              		.file 13 "Drivers/STM32F4xx_HAL_Driver/Inc/stm32f4xx_hal_dma.h"
 1858              		.file 14 "Drivers/STM32F4xx_HAL_Driver/Inc/stm32f4xx_hal_i2s.h"
 1859              		.file 15 "Drivers/STM32F4xx_HAL_Driver/Inc/stm32f4xx_hal.h"
ARM GAS  /tmp/ccVZ1tTs.s 			page 60


DEFINED SYMBOLS
                            *ABS*:0000000000000000 stm32f4xx_hal_i2s_ex.c
     /tmp/ccVZ1tTs.s:18     .text.I2SEx_TxRxDMAError:0000000000000000 $t
     /tmp/ccVZ1tTs.s:24     .text.I2SEx_TxRxDMAError:0000000000000000 I2SEx_TxRxDMAError
     /tmp/ccVZ1tTs.s:69     .text.I2SEx_TxRxDMAError:0000000000000038 $d
     /tmp/ccVZ1tTs.s:75     .text.I2SEx_FullDuplexWaitFlagStateUntilTimeout.constprop.5:0000000000000000 $t
     /tmp/ccVZ1tTs.s:81     .text.I2SEx_FullDuplexWaitFlagStateUntilTimeout.constprop.5:0000000000000000 I2SEx_FullDuplexWaitFlagStateUntilTimeout.constprop.5
     /tmp/ccVZ1tTs.s:177    .text.I2SEx_FullDuplexWaitFlagStateUntilTimeout.constprop.5:0000000000000078 $d
     /tmp/ccVZ1tTs.s:183    .text.HAL_I2SEx_TransmitReceive:0000000000000000 $t
     /tmp/ccVZ1tTs.s:190    .text.HAL_I2SEx_TransmitReceive:0000000000000000 HAL_I2SEx_TransmitReceive
     /tmp/ccVZ1tTs.s:676    .text.HAL_I2SEx_TransmitReceive:0000000000000290 $d
     /tmp/ccVZ1tTs.s:682    .text.HAL_I2SEx_TransmitReceive_DMA:0000000000000000 $t
     /tmp/ccVZ1tTs.s:689    .text.HAL_I2SEx_TransmitReceive_DMA:0000000000000000 HAL_I2SEx_TransmitReceive_DMA
     /tmp/ccVZ1tTs.s:954    .text.HAL_I2SEx_TransmitReceive_DMA:0000000000000168 $d
     /tmp/ccVZ1tTs.s:1293   .text.I2SEx_TxRxDMACplt:0000000000000000 I2SEx_TxRxDMACplt
     /tmp/ccVZ1tTs.s:990    .text.I2SEx_TxRxDMAHalfCplt:0000000000000000 I2SEx_TxRxDMAHalfCplt
     /tmp/ccVZ1tTs.s:963    .text.HAL_I2SEx_TxRxHalfCpltCallback:0000000000000000 $t
     /tmp/ccVZ1tTs.s:970    .text.HAL_I2SEx_TxRxHalfCpltCallback:0000000000000000 HAL_I2SEx_TxRxHalfCpltCallback
     /tmp/ccVZ1tTs.s:984    .text.I2SEx_TxRxDMAHalfCplt:0000000000000000 $t
     /tmp/ccVZ1tTs.s:1013   .text.HAL_I2SEx_TxRxCpltCallback:0000000000000000 $t
     /tmp/ccVZ1tTs.s:1020   .text.HAL_I2SEx_TxRxCpltCallback:0000000000000000 HAL_I2SEx_TxRxCpltCallback
     /tmp/ccVZ1tTs.s:1031   .text.HAL_I2SEx_TransmitReceive_IT:0000000000000000 $t
     /tmp/ccVZ1tTs.s:1038   .text.HAL_I2SEx_TransmitReceive_IT:0000000000000000 HAL_I2SEx_TransmitReceive_IT
     /tmp/ccVZ1tTs.s:1281   .text.HAL_I2SEx_TransmitReceive_IT:0000000000000160 $d
     /tmp/ccVZ1tTs.s:1287   .text.I2SEx_TxRxDMACplt:0000000000000000 $t
     /tmp/ccVZ1tTs.s:1411   .text.I2SEx_TxRxDMACplt:00000000000000a4 $d
     /tmp/ccVZ1tTs.s:1417   .text.HAL_I2SEx_FullDuplex_IRQHandler:0000000000000000 $t
     /tmp/ccVZ1tTs.s:1424   .text.HAL_I2SEx_FullDuplex_IRQHandler:0000000000000000 HAL_I2SEx_FullDuplex_IRQHandler
     /tmp/ccVZ1tTs.s:1839   .text.HAL_I2SEx_FullDuplex_IRQHandler:000000000000025c $d

UNDEFINED SYMBOLS
HAL_I2S_ErrorCallback
HAL_GetTick
HAL_DMA_Start_IT
